Component: ARM Compiler 5.06 update 6 (build 750) Tool: armlink [4d35ed]

==============================================================================

Section Cross References

    startup_stm32g070xx.o(RESET) refers to startup_stm32g070xx.o(STACK) for __initial_sp
    startup_stm32g070xx.o(RESET) refers to startup_stm32g070xx.o(.text) for Reset_Handler
    startup_stm32g070xx.o(RESET) refers to stm32g0xx_it.o(i.NMI_Handler) for NMI_Handler
    startup_stm32g070xx.o(RESET) refers to context_rvds.o(.text) for HardFault_Handler
    startup_stm32g070xx.o(RESET) refers to stm32g0xx_it.o(i.SVC_Handler) for SVC_Handler
    startup_stm32g070xx.o(RESET) refers to board.o(i.SysTick_Handler) for SysTick_Handler
    startup_stm32g070xx.o(RESET) refers to stm32g0xx_it.o(i.DMA1_Channel1_IRQHandler) for DMA1_Channel1_IRQHandler
    startup_stm32g070xx.o(RESET) refers to stm32g0xx_it.o(i.DMA1_Channel2_3_IRQHandler) for DMA1_Channel2_3_IRQHandler
    startup_stm32g070xx.o(RESET) refers to stm32g0xx_it.o(i.TIM3_IRQHandler) for TIM3_IRQHandler
    startup_stm32g070xx.o(RESET) refers to usart_1.o(i.USART1_IRQHandler) for USART1_IRQHandler
    startup_stm32g070xx.o(.text) refers to system_stm32g0xx.o(i.SystemInit) for SystemInit
    startup_stm32g070xx.o(.text) refers to entry.o(.ARM.Collect$$$$00000000) for __main
    main.o(i.main) refers to task.o(i.task_Init) for task_Init
    main.o(i.main) refers to thread.o(i.rt_thread_mdelay) for rt_thread_mdelay
    stm32g0xx_it.o(i.DMA1_Channel1_IRQHandler) refers to stm32g0xx_hal_dma.o(i.HAL_DMA_IRQHandler) for HAL_DMA_IRQHandler
    stm32g0xx_it.o(i.DMA1_Channel1_IRQHandler) refers to adc_1.o(.bss) for hdma_adc1
    stm32g0xx_it.o(i.DMA1_Channel2_3_IRQHandler) refers to stm32g0xx_hal_dma.o(i.HAL_DMA_IRQHandler) for HAL_DMA_IRQHandler
    stm32g0xx_it.o(i.DMA1_Channel2_3_IRQHandler) refers to usart_1.o(.bss) for hdma_usart1_rx
    stm32g0xx_it.o(i.TIM3_IRQHandler) refers to stm32g0xx_hal_tim.o(i.HAL_TIM_IRQHandler) for HAL_TIM_IRQHandler
    stm32g0xx_it.o(i.TIM3_IRQHandler) refers to tim_1.o(.bss) for htim3
    para.o(i.GetAverage) refers to uldiv.o(.text) for __aeabi_uldivmod
    para.o(i.GetDelExtremeAndAverage) refers to para.o(i.SortArrayExtreme) for SortArrayExtreme
    para.o(i.GetDelExtremeAndAverage) refers to para.o(i.GetAverage) for GetAverage
    para.o(i.ReadPara) refers to inflash.o(i.FlashReadNWord) for FlashReadNWord
    para.o(i.ReadPara) refers to inflash.o(i.FlashWriteDoubleWord) for FlashWriteDoubleWord
    para.o(i.ReadPara) refers to para.o(.data) for User_Default_Param
    para.o(i.ReadPara) refers to para.o(.bss) for Cur_Param
    para.o(i.Switch_Fiter) refers to para.o(.bss) for UserPara
    para.o(i.Switch_Fiter) refers to task.o(.data) for time_tick
    board.o(i.SysTick_Handler) refers to irq.o(i.rt_interrupt_enter) for rt_interrupt_enter
    board.o(i.SysTick_Handler) refers to clock.o(i.rt_tick_increase) for rt_tick_increase
    board.o(i.SysTick_Handler) refers to irq.o(i.rt_interrupt_leave) for rt_interrupt_leave
    board.o(i.rt_heap_begin_get) refers to board.o(.bss) for rt_heap
    board.o(i.rt_heap_end_get) refers to board.o(.bss) for rt_heap
    board.o(i.rt_hw_board_init) refers to system.o(i.system_Init) for system_Init
    board.o(i.rt_hw_board_init) refers to components.o(i.rt_components_board_init) for rt_components_board_init
    board.o(i.rt_hw_board_init) refers to board.o(i.rt_heap_end_get) for rt_heap_end_get
    board.o(i.rt_hw_board_init) refers to board.o(i.rt_heap_begin_get) for rt_heap_begin_get
    board.o(i.rt_hw_board_init) refers to mem.o(i.rt_system_heap_init) for rt_system_heap_init
    system.o(i.system_Init) refers to stm32g0xx_hal.o(i.HAL_Init) for HAL_Init
    system.o(i.system_Init) refers to system_clock.o(i.SystemClock_Config) for SystemClock_Config
    system.o(i.system_Init) refers to led.o(i.MX_GPIO_Init) for MX_GPIO_Init
    system.o(i.system_Init) refers to dma_1.o(i.MX_DMA_Init) for MX_DMA_Init
    system.o(i.system_Init) refers to adc_1.o(i.MX_ADC1_Init) for MX_ADC1_Init
    system.o(i.system_Init) refers to usart_1.o(i.MX_USART1_UART_Init) for MX_USART1_UART_Init
    system.o(i.system_Init) refers to tim_1.o(i.MX_TIM1_Init) for MX_TIM1_Init
    system.o(i.system_Init) refers to tim_1.o(i.MX_TIM3_Init) for MX_TIM3_Init
    system.o(i.system_Init) refers to iwdg.o(i.User_Iwdg_Init) for User_Iwdg_Init
    system_clock.o(i.SystemClock_Config) refers to memseta.o(.text) for __aeabi_memclr4
    system_clock.o(i.SystemClock_Config) refers to stm32g0xx_hal_pwr_ex.o(i.HAL_PWREx_ControlVoltageScaling) for HAL_PWREx_ControlVoltageScaling
    system_clock.o(i.SystemClock_Config) refers to stm32g0xx_hal_rcc.o(i.HAL_RCC_OscConfig) for HAL_RCC_OscConfig
    system_clock.o(i.SystemClock_Config) refers to main.o(i.Error_Handler) for Error_Handler
    system_clock.o(i.SystemClock_Config) refers to stm32g0xx_hal_rcc.o(i.HAL_RCC_ClockConfig) for HAL_RCC_ClockConfig
    system_clock.o(i.SystemClock_Config) refers to stm32g0xx_hal_rcc_ex.o(i.HAL_RCCEx_PeriphCLKConfig) for HAL_RCCEx_PeriphCLKConfig
    task.o(i.Z_F_Zhuan_thread_entry) refers to modbus_asc.o(i.MBASC_Function) for MBASC_Function
    task.o(i.led_thread_entry) refers to stm32g0xx_hal_gpio.o(i.HAL_GPIO_TogglePin) for HAL_GPIO_TogglePin
    task.o(i.led_thread_entry) refers to thread.o(i.rt_thread_mdelay) for rt_thread_mdelay
    task.o(i.task_Init) refers to strcmp.o(.text) for strcmp
    task.o(i.task_Init) refers to thread.o(i.rt_thread_create) for rt_thread_create
    task.o(i.task_Init) refers to thread.o(i.rt_thread_startup) for rt_thread_startup
    task.o(i.task_Init) refers to task.o(.data) for TaskThreads
    task.o(.data) refers to task.o(.conststring) for .conststring
    task.o(.data) refers to task.o(i.led_thread_entry) for led_thread_entry
    task.o(.data) refers to task.o(i.Z_F_Zhuan_thread_entry) for Z_F_Zhuan_thread_entry
    usart_1.o(i.HAL_UART_MspDeInit) refers to stm32g0xx_hal_gpio.o(i.HAL_GPIO_DeInit) for HAL_GPIO_DeInit
    usart_1.o(i.HAL_UART_MspDeInit) refers to stm32g0xx_hal_dma.o(i.HAL_DMA_DeInit) for HAL_DMA_DeInit
    usart_1.o(i.HAL_UART_MspDeInit) refers to stm32g0xx_hal_cortex.o(i.HAL_NVIC_DisableIRQ) for HAL_NVIC_DisableIRQ
    usart_1.o(i.HAL_UART_MspInit) refers to memseta.o(.text) for __aeabi_memclr4
    usart_1.o(i.HAL_UART_MspInit) refers to stm32g0xx_hal_gpio.o(i.HAL_GPIO_Init) for HAL_GPIO_Init
    usart_1.o(i.HAL_UART_MspInit) refers to stm32g0xx_hal_dma.o(i.HAL_DMA_Init) for HAL_DMA_Init
    usart_1.o(i.HAL_UART_MspInit) refers to main.o(i.Error_Handler) for Error_Handler
    usart_1.o(i.HAL_UART_MspInit) refers to stm32g0xx_hal_cortex.o(i.HAL_NVIC_SetPriority) for HAL_NVIC_SetPriority
    usart_1.o(i.HAL_UART_MspInit) refers to stm32g0xx_hal_cortex.o(i.HAL_NVIC_EnableIRQ) for HAL_NVIC_EnableIRQ
    usart_1.o(i.HAL_UART_MspInit) refers to usart_1.o(.bss) for hdma_usart1_rx
    usart_1.o(i.MX_USART1_UART_Init) refers to usart_1.o(i.__ARM_common_switch8) for __ARM_common_switch8
    usart_1.o(i.MX_USART1_UART_Init) refers to stm32g0xx_hal_uart.o(i.HAL_UART_Init) for HAL_UART_Init
    usart_1.o(i.MX_USART1_UART_Init) refers to main.o(i.Error_Handler) for Error_Handler
    usart_1.o(i.MX_USART1_UART_Init) refers to stm32g0xx_hal_uart_ex.o(i.HAL_UARTEx_SetTxFifoThreshold) for HAL_UARTEx_SetTxFifoThreshold
    usart_1.o(i.MX_USART1_UART_Init) refers to stm32g0xx_hal_uart_ex.o(i.HAL_UARTEx_SetRxFifoThreshold) for HAL_UARTEx_SetRxFifoThreshold
    usart_1.o(i.MX_USART1_UART_Init) refers to stm32g0xx_hal_uart_ex.o(i.HAL_UARTEx_DisableFifoMode) for HAL_UARTEx_DisableFifoMode
    usart_1.o(i.MX_USART1_UART_Init) refers to stm32g0xx_hal_uart.o(i.HAL_UART_Receive_DMA) for HAL_UART_Receive_DMA
    usart_1.o(i.MX_USART1_UART_Init) refers to usart_1.o(.bss) for huart1
    usart_1.o(i.MX_USART1_UART_Init) refers to para.o(.bss) for UserPara
    usart_1.o(i.UART_DMA_Recv) refers to stm32g0xx_hal_uart.o(i.HAL_UART_Receive_DMA) for HAL_UART_Receive_DMA
    usart_1.o(i.UART_DMA_Recv) refers to usart_1.o(.bss) for huart1
    usart_1.o(i.UART_DMA_Send) refers to stm32g0xx_hal_uart.o(i.HAL_UART_Transmit_DMA) for HAL_UART_Transmit_DMA
    usart_1.o(i.UART_DMA_Send) refers to usart_1.o(.bss) for huart1
    usart_1.o(i.USART1_IRQHandler) refers to stm32g0xx_hal_uart.o(i.HAL_UART_IRQHandler) for HAL_UART_IRQHandler
    usart_1.o(i.USART1_IRQHandler) refers to stm32g0xx_hal_uart.o(i.HAL_UART_DMAStop) for HAL_UART_DMAStop
    usart_1.o(i.USART1_IRQHandler) refers to usart_1.o(i.UART_DMA_Send) for UART_DMA_Send
    usart_1.o(i.USART1_IRQHandler) refers to modbus_ascii.o(i.MODBUS_ASCII_HandlRevData) for MODBUS_ASCII_HandlRevData
    usart_1.o(i.USART1_IRQHandler) refers to stm32g0xx_hal_uart.o(i.HAL_UART_Receive_DMA) for HAL_UART_Receive_DMA
    usart_1.o(i.USART1_IRQHandler) refers to usart_1.o(.bss) for huart1
    usart_1.o(i.USART1_IRQHandler) refers to usart_1.o(.data) for rx_len
    tim_1.o(i.HAL_TIM_Base_MspDeInit) refers to stm32g0xx_hal_cortex.o(i.HAL_NVIC_DisableIRQ) for HAL_NVIC_DisableIRQ
    tim_1.o(i.HAL_TIM_Base_MspInit) refers to stm32g0xx_hal_cortex.o(i.HAL_NVIC_SetPriority) for HAL_NVIC_SetPriority
    tim_1.o(i.HAL_TIM_Base_MspInit) refers to stm32g0xx_hal_cortex.o(i.HAL_NVIC_EnableIRQ) for HAL_NVIC_EnableIRQ
    tim_1.o(i.HAL_TIM_PeriodElapsedCallback) refers to idiv.o(.text) for __aeabi_idivmod
    tim_1.o(i.HAL_TIM_PeriodElapsedCallback) refers to tim_1.o(.data) for tim_cnt
    tim_1.o(i.HAL_TIM_PeriodElapsedCallback) refers to para.o(.bss) for UserPara
    tim_1.o(i.HAL_TIM_PeriodElapsedCallback) refers to para.o(.data) for Current_pulse
    tim_1.o(i.MX_TIM1_Init) refers to memseta.o(.text) for __aeabi_memclr4
    tim_1.o(i.MX_TIM1_Init) refers to stm32g0xx_hal_tim.o(i.HAL_TIM_Base_Init) for HAL_TIM_Base_Init
    tim_1.o(i.MX_TIM1_Init) refers to main.o(i.Error_Handler) for Error_Handler
    tim_1.o(i.MX_TIM1_Init) refers to stm32g0xx_hal_tim.o(i.HAL_TIM_ConfigClockSource) for HAL_TIM_ConfigClockSource
    tim_1.o(i.MX_TIM1_Init) refers to stm32g0xx_hal_tim_ex.o(i.HAL_TIMEx_MasterConfigSynchronization) for HAL_TIMEx_MasterConfigSynchronization
    tim_1.o(i.MX_TIM1_Init) refers to stm32g0xx_hal_tim_ex.o(i.HAL_TIMEx_ConfigBreakDeadTime) for HAL_TIMEx_ConfigBreakDeadTime
    tim_1.o(i.MX_TIM1_Init) refers to stm32g0xx_hal_tim.o(i.HAL_TIM_Base_Start_IT) for HAL_TIM_Base_Start_IT
    tim_1.o(i.MX_TIM1_Init) refers to tim_1.o(.bss) for htim1
    tim_1.o(i.MX_TIM3_Init) refers to stm32g0xx_hal_tim.o(i.HAL_TIM_Base_Init) for HAL_TIM_Base_Init
    tim_1.o(i.MX_TIM3_Init) refers to main.o(i.Error_Handler) for Error_Handler
    tim_1.o(i.MX_TIM3_Init) refers to stm32g0xx_hal_tim.o(i.HAL_TIM_ConfigClockSource) for HAL_TIM_ConfigClockSource
    tim_1.o(i.MX_TIM3_Init) refers to stm32g0xx_hal_tim_ex.o(i.HAL_TIMEx_MasterConfigSynchronization) for HAL_TIMEx_MasterConfigSynchronization
    tim_1.o(i.MX_TIM3_Init) refers to stm32g0xx_hal_tim.o(i.HAL_TIM_Base_Start_IT) for HAL_TIM_Base_Start_IT
    tim_1.o(i.MX_TIM3_Init) refers to tim_1.o(.bss) for htim3
    tim_1.o(i.TIM1_ETR_Init) refers to memseta.o(.text) for __aeabi_memclr4
    tim_1.o(i.TIM1_ETR_Init) refers to stm32g0xx_hal_gpio.o(i.HAL_GPIO_Init) for HAL_GPIO_Init
    led.o(i.MX_GPIO_Init) refers to memseta.o(.text) for __aeabi_memclr4
    led.o(i.MX_GPIO_Init) refers to stm32g0xx_hal_gpio.o(i.HAL_GPIO_WritePin) for HAL_GPIO_WritePin
    led.o(i.MX_GPIO_Init) refers to stm32g0xx_hal_gpio.o(i.HAL_GPIO_Init) for HAL_GPIO_Init
    dma_1.o(i.MX_DMA_Init) refers to stm32g0xx_hal_cortex.o(i.HAL_NVIC_SetPriority) for HAL_NVIC_SetPriority
    dma_1.o(i.MX_DMA_Init) refers to stm32g0xx_hal_cortex.o(i.HAL_NVIC_EnableIRQ) for HAL_NVIC_EnableIRQ
    adc_1.o(i.HAL_ADC_MspDeInit) refers to stm32g0xx_hal_gpio.o(i.HAL_GPIO_DeInit) for HAL_GPIO_DeInit
    adc_1.o(i.HAL_ADC_MspDeInit) refers to stm32g0xx_hal_dma.o(i.HAL_DMA_DeInit) for HAL_DMA_DeInit
    adc_1.o(i.HAL_ADC_MspInit) refers to memseta.o(.text) for __aeabi_memclr4
    adc_1.o(i.HAL_ADC_MspInit) refers to stm32g0xx_hal_gpio.o(i.HAL_GPIO_Init) for HAL_GPIO_Init
    adc_1.o(i.HAL_ADC_MspInit) refers to stm32g0xx_hal_dma.o(i.HAL_DMA_Init) for HAL_DMA_Init
    adc_1.o(i.HAL_ADC_MspInit) refers to main.o(i.Error_Handler) for Error_Handler
    adc_1.o(i.HAL_ADC_MspInit) refers to adc_1.o(.bss) for hdma_adc1
    adc_1.o(i.MX_ADC1_Init) refers to memseta.o(.text) for __aeabi_memclr4
    adc_1.o(i.MX_ADC1_Init) refers to stm32g0xx_hal_adc.o(i.HAL_ADC_Init) for HAL_ADC_Init
    adc_1.o(i.MX_ADC1_Init) refers to main.o(i.Error_Handler) for Error_Handler
    adc_1.o(i.MX_ADC1_Init) refers to stm32g0xx_hal_adc.o(i.HAL_ADC_AnalogWDGConfig) for HAL_ADC_AnalogWDGConfig
    adc_1.o(i.MX_ADC1_Init) refers to stm32g0xx_hal_adc.o(i.HAL_ADC_ConfigChannel) for HAL_ADC_ConfigChannel
    adc_1.o(i.MX_ADC1_Init) refers to adc_1.o(.bss) for hadc1
    modbus_asc.o(i.MBASC_Fun03) refers to modbus_asc.o(i.MBASC_SendErr) for MBASC_SendErr
    modbus_asc.o(i.MBASC_Fun03) refers to usart_1.o(i.__ARM_common_switch8) for __ARM_common_switch8
    modbus_asc.o(i.MBASC_Fun03) refers to modbus_asc.o(i.MBASC_SendMsg_NoLimit) for MBASC_SendMsg_NoLimit
    modbus_asc.o(i.MBASC_Fun03) refers to usart_1.o(.bss) for UART1_RXBuff
    modbus_asc.o(i.MBASC_Fun03) refers to modbus_asc.o(.data) for SendLen
    modbus_asc.o(i.MBASC_Fun03) refers to para.o(.bss) for UserPara
    modbus_asc.o(i.MBASC_Fun03) refers to modbus_asc.o(.bss) for SendBuf
    modbus_asc.o(i.MBASC_Fun04) refers to modbus_asc.o(i.MBASC_SendErr) for MBASC_SendErr
    modbus_asc.o(i.MBASC_Fun04) refers to usart_1.o(i.__ARM_common_switch8) for __ARM_common_switch8
    modbus_asc.o(i.MBASC_Fun04) refers to modbus_asc.o(i.MBASC_SendMsg) for MBASC_SendMsg
    modbus_asc.o(i.MBASC_Fun04) refers to usart_1.o(.bss) for UART1_RXBuff
    modbus_asc.o(i.MBASC_Fun04) refers to modbus_asc.o(.data) for SendLen
    modbus_asc.o(i.MBASC_Fun04) refers to para.o(.bss) for UserPara
    modbus_asc.o(i.MBASC_Fun04) refers to modbus_asc.o(.bss) for SendBuf
    modbus_asc.o(i.MBASC_Fun05) refers to modbus_asc.o(i.MBASC_SendErr) for MBASC_SendErr
    modbus_asc.o(i.MBASC_Fun05) refers to inflash.o(i.FlashWriteDoubleWord) for FlashWriteDoubleWord
    modbus_asc.o(i.MBASC_Fun05) refers to para.o(i.ReadPara) for ReadPara
    modbus_asc.o(i.MBASC_Fun05) refers to modbus_asc.o(i.MBASC_SendMsg) for MBASC_SendMsg
    modbus_asc.o(i.MBASC_Fun05) refers to usart_1.o(.bss) for UART1_RXBuff
    modbus_asc.o(i.MBASC_Fun05) refers to modbus_asc.o(.data) for SendLen
    modbus_asc.o(i.MBASC_Fun05) refers to para.o(.bss) for UserPara
    modbus_asc.o(i.MBASC_Fun05) refers to modbus_asc.o(.bss) for SendBuf
    modbus_asc.o(i.MBASC_Fun10) refers to modbus_asc.o(i.MBASC_SendErr) for MBASC_SendErr
    modbus_asc.o(i.MBASC_Fun10) refers to usart_1.o(i.__ARM_common_switch8) for __ARM_common_switch8
    modbus_asc.o(i.MBASC_Fun10) refers to inflash.o(i.FlashWriteDoubleWord) for FlashWriteDoubleWord
    modbus_asc.o(i.MBASC_Fun10) refers to usart_1.o(i.MX_USART1_UART_Init) for MX_USART1_UART_Init
    modbus_asc.o(i.MBASC_Fun10) refers to common.o(i.long32Array) for long32Array
    modbus_asc.o(i.MBASC_Fun10) refers to modbus_asc.o(i.MBASC_SendMsg) for MBASC_SendMsg
    modbus_asc.o(i.MBASC_Fun10) refers to usart_1.o(.bss) for UART1_RXBuff
    modbus_asc.o(i.MBASC_Fun10) refers to modbus_asc.o(.data) for SendLen
    modbus_asc.o(i.MBASC_Fun10) refers to para.o(.bss) for UserPara
    modbus_asc.o(i.MBASC_Fun10) refers to modbus_asc.o(.bss) for SendBuf
    modbus_asc.o(i.MBASC_Fun2B) refers to modbus_asc.o(i.MBASC_GetSlaveAddr) for MBASC_GetSlaveAddr
    modbus_asc.o(i.MBASC_Fun2B) refers to modbus_asc.o(i.MBASC_SendErr) for MBASC_SendErr
    modbus_asc.o(i.MBASC_Fun2B) refers to usart_1.o(i.__ARM_common_switch8) for __ARM_common_switch8
    modbus_asc.o(i.MBASC_Fun2B) refers to modbus_asc.o(i.MBASC_SendMsg) for MBASC_SendMsg
    modbus_asc.o(i.MBASC_Fun2B) refers to para.o(.bss) for UserPara
    modbus_asc.o(i.MBASC_Fun2B) refers to usart_1.o(.bss) for UART1_RXBuff
    modbus_asc.o(i.MBASC_Fun2B) refers to modbus_asc.o(.data) for SendLen
    modbus_asc.o(i.MBASC_Fun2B) refers to modbus_asc.o(.bss) for SendBuf
    modbus_asc.o(i.MBASC_Fun2B) refers to modbus_asc.o(.constdata) for SensorSoftVersion
    modbus_asc.o(i.MBASC_Fun41) refers to inflash.o(i.FlashWriteDoubleWord) for FlashWriteDoubleWord
    modbus_asc.o(i.MBASC_Fun41) refers to inflash.o(i.FlashReadNWord) for FlashReadNWord
    modbus_asc.o(i.MBASC_Fun41) refers to modbus_asc.o(i.MBASC_SendMsg) for MBASC_SendMsg
    modbus_asc.o(i.MBASC_Fun41) refers to usart_1.o(.bss) for UART1_RXBuff
    modbus_asc.o(i.MBASC_Fun41) refers to modbus_asc.o(.data) for SendLen
    modbus_asc.o(i.MBASC_Fun41) refers to para.o(.bss) for UserPara
    modbus_asc.o(i.MBASC_Fun41) refers to modbus_asc.o(.bss) for SendBuf
    modbus_asc.o(i.MBASC_Fun41) refers to usart_1.o(.data) for u8SendNum
    modbus_asc.o(i.MBASC_Function) refers to modbus_ascii.o(i.MODBUS_ASCII_RecvData) for MODBUS_ASCII_RecvData
    modbus_asc.o(i.MBASC_Function) refers to modbus_asc.o(i.MBASC_Fun03) for MBASC_Fun03
    modbus_asc.o(i.MBASC_Function) refers to modbus_asc.o(i.MBASC_Fun04) for MBASC_Fun04
    modbus_asc.o(i.MBASC_Function) refers to modbus_asc.o(i.MBASC_Fun05) for MBASC_Fun05
    modbus_asc.o(i.MBASC_Function) refers to modbus_asc.o(i.MBASC_Fun10) for MBASC_Fun10
    modbus_asc.o(i.MBASC_Function) refers to modbus_asc.o(i.MBASC_Fun2B) for MBASC_Fun2B
    modbus_asc.o(i.MBASC_Function) refers to modbus_asc.o(i.MBASC_Fun41) for MBASC_Fun41
    modbus_asc.o(i.MBASC_Function) refers to modbus_asc.o(i.MBASC_SendMsg) for MBASC_SendMsg
    modbus_asc.o(i.MBASC_Function) refers to usart_1.o(.data) for UartRecvFrameOK
    modbus_asc.o(i.MBASC_Function) refers to usart_1.o(.bss) for UART1_RXBuff
    modbus_asc.o(i.MBASC_Function) refers to para.o(.bss) for UserPara
    modbus_asc.o(i.MBASC_Function) refers to modbus_asc.o(.data) for SendLen
    modbus_asc.o(i.MBASC_Function) refers to modbus_asc.o(.bss) for SendBuf
    modbus_asc.o(i.MBASC_SendErr) refers to modbus_asc.o(i.MBASC_SendMsg) for MBASC_SendMsg
    modbus_asc.o(i.MBASC_SendErr) refers to modbus_asc.o(.data) for SendLen
    modbus_asc.o(i.MBASC_SendErr) refers to modbus_asc.o(.bss) for SendBuf
    modbus_asc.o(i.MBASC_SendMsg) refers to stm32g0xx_hal.o(i.HAL_Delay) for HAL_Delay
    modbus_asc.o(i.MBASC_SendMsg) refers to modbus_ascii.o(i.MODBUS_ASCII_SendData) for MODBUS_ASCII_SendData
    modbus_asc.o(i.MBASC_SendMsg_NoLimit) refers to stm32g0xx_hal.o(i.HAL_Delay) for HAL_Delay
    modbus_asc.o(i.MBASC_SendMsg_NoLimit) refers to modbus_ascii.o(i.MODBUS_ASCII_SendData) for MODBUS_ASCII_SendData
    modbus_ascii.o(i.MODBUS_ASCII_AsciiPacketToRtuPacket) refers to modbus_ascii.o(i.MODBUS_ASCII_AsciiToHex) for MODBUS_ASCII_AsciiToHex
    modbus_ascii.o(i.MODBUS_ASCII_GetLrc) refers to modbus_ascii.o(i.MODBUS_ASCII_AsciiToHex) for MODBUS_ASCII_AsciiToHex
    modbus_ascii.o(i.MODBUS_ASCII_HandlRevData) refers to modbus_ascii.o(.data) for g_cyRevState
    modbus_ascii.o(i.MODBUS_ASCII_HandlRevData) refers to usart_1.o(.bss) for UART1_RXBuff
    modbus_ascii.o(i.MODBUS_ASCII_HandlRevData) refers to usart_1.o(.data) for UartRecvFrameOK
    modbus_ascii.o(i.MODBUS_ASCII_RecvData) refers to modbus_ascii.o(i.MODBUS_ASCII_CheckAscii) for MODBUS_ASCII_CheckAscii
    modbus_ascii.o(i.MODBUS_ASCII_RecvData) refers to modbus_ascii.o(i.MODBUS_ASCII_GetLrc) for MODBUS_ASCII_GetLrc
    modbus_ascii.o(i.MODBUS_ASCII_RecvData) refers to modbus_ascii.o(i.MODBUS_ASCII_AsciiToHex) for MODBUS_ASCII_AsciiToHex
    modbus_ascii.o(i.MODBUS_ASCII_RecvData) refers to modbus_ascii.o(i.MODBUS_ASCII_AsciiPacketToRtuPacket) for MODBUS_ASCII_AsciiPacketToRtuPacket
    modbus_ascii.o(i.MODBUS_ASCII_RecvData) refers to usart_1.o(.data) for UartRecvFrameOK
    modbus_ascii.o(i.MODBUS_ASCII_RecvData) refers to modbus_ascii.o(.data) for g_cyRevBufffLen
    modbus_ascii.o(i.MODBUS_ASCII_RecvData) refers to usart_1.o(.bss) for UART1_RXBuff
    modbus_ascii.o(i.MODBUS_ASCII_RtuPacketToAsciiPacket) refers to modbus_ascii.o(i.MODBUS_ASCII_HexToAscii) for MODBUS_ASCII_HexToAscii
    modbus_ascii.o(i.MODBUS_ASCII_SendData) refers to modbus_ascii.o(i.MODBUS_ASCII_RtuPacketToAsciiPacket) for MODBUS_ASCII_RtuPacketToAsciiPacket
    modbus_ascii.o(i.MODBUS_ASCII_SendData) refers to modbus_ascii.o(i.MODBUS_ASCII_GetLrc) for MODBUS_ASCII_GetLrc
    modbus_ascii.o(i.MODBUS_ASCII_SendData) refers to modbus_ascii.o(i.MODBUS_ASCII_HexToAscii) for MODBUS_ASCII_HexToAscii
    modbus_ascii.o(i.MODBUS_ASCII_SendData) refers to usart_1.o(i.UART_DMA_Send) for UART_DMA_Send
    modbus_ascii.o(i.MODBUS_ASCII_SendData) refers to modbus_ascii.o(.bss) for cyAsciiBuff
    common.o(i.delay_us) refers to stm32g0xx_hal_rcc.o(i.HAL_RCC_GetHCLKFreq) for HAL_RCC_GetHCLKFreq
    common.o(i.delay_us) refers to uidiv.o(.text) for __aeabi_uidivmod
    iwdg.o(i.User_Iwdg_Feed) refers to stm32g0xx_hal_iwdg.o(i.HAL_IWDG_Refresh) for HAL_IWDG_Refresh
    iwdg.o(i.User_Iwdg_Feed) refers to iwdg.o(.bss) for IWDG_HandleStructure
    iwdg.o(i.User_Iwdg_Init) refers to stm32g0xx_hal_iwdg.o(i.HAL_IWDG_Init) for HAL_IWDG_Init
    iwdg.o(i.User_Iwdg_Init) refers to iwdg.o(.bss) for IWDG_HandleStructure
    inflash.o(i.FLASH_If_Erase) refers to inflash.o(i.GetPage) for GetPage
    inflash.o(i.FLASH_If_Erase) refers to stm32g0xx_hal_flash.o(i.HAL_FLASH_Unlock) for HAL_FLASH_Unlock
    inflash.o(i.FLASH_If_Erase) refers to stm32g0xx_hal_flash_ex.o(i.HAL_FLASHEx_Erase) for HAL_FLASHEx_Erase
    inflash.o(i.FLASH_If_Erase) refers to inflash.o(.data) for FirstPage
    inflash.o(i.FLASH_If_Erase) refers to inflash.o(.bss) for EraseInitStruct
    inflash.o(i.FlashPageErase) refers to inflash.o(i.GetPage) for GetPage
    inflash.o(i.FlashPageErase) refers to stm32g0xx_hal_flash.o(i.HAL_FLASH_Unlock) for HAL_FLASH_Unlock
    inflash.o(i.FlashPageErase) refers to stm32g0xx_hal_flash_ex.o(i.HAL_FLASHEx_Erase) for HAL_FLASHEx_Erase
    inflash.o(i.FlashPageErase) refers to stm32g0xx_hal_flash.o(i.HAL_FLASH_Lock) for HAL_FLASH_Lock
    inflash.o(i.FlashPageErase) refers to inflash.o(.data) for FirstPage
    inflash.o(i.FlashPageErase) refers to inflash.o(.bss) for EraseInitStruct
    inflash.o(i.FlashReadNHalfWord) refers to stm32g0xx_hal_flash.o(i.HAL_FLASH_Unlock) for HAL_FLASH_Unlock
    inflash.o(i.FlashReadNHalfWord) refers to stm32g0xx_hal_flash.o(i.HAL_FLASH_Lock) for HAL_FLASH_Lock
    inflash.o(i.FlashReadNWord) refers to stm32g0xx_hal_flash.o(i.HAL_FLASH_Unlock) for HAL_FLASH_Unlock
    inflash.o(i.FlashReadNWord) refers to inflash.o(i.FlashReadWord) for FlashReadWord
    inflash.o(i.FlashReadNWord) refers to stm32g0xx_hal_flash.o(i.HAL_FLASH_Lock) for HAL_FLASH_Lock
    inflash.o(i.FlashWriteDoubleWord) refers to inflash.o(i.FlashPageErase) for FlashPageErase
    inflash.o(i.FlashWriteDoubleWord) refers to stm32g0xx_hal_flash.o(i.HAL_FLASH_Unlock) for HAL_FLASH_Unlock
    inflash.o(i.FlashWriteDoubleWord) refers to stm32g0xx_hal_flash.o(i.HAL_FLASH_Program) for HAL_FLASH_Program
    inflash.o(i.FlashWriteDoubleWord) refers to stm32g0xx_hal_flash.o(i.HAL_FLASH_Lock) for HAL_FLASH_Lock
    inflash.o(i.FlashWriteHalfWord) refers to stm32g0xx_hal_flash.o(i.HAL_FLASH_Unlock) for HAL_FLASH_Unlock
    inflash.o(i.FlashWriteHalfWord) refers to stm32g0xx_hal_flash.o(i.HAL_FLASH_Lock) for HAL_FLASH_Lock
    clock.o(i.rt_tick_from_millisecond) refers to idiv.o(.text) for __aeabi_idivmod
    clock.o(i.rt_tick_get) refers to clock.o(.data) for rt_tick
    clock.o(i.rt_tick_increase) refers to thread.o(i.rt_thread_self) for rt_thread_self
    clock.o(i.rt_tick_increase) refers to thread.o(i.rt_thread_yield) for rt_thread_yield
    clock.o(i.rt_tick_increase) refers to timer.o(i.rt_timer_check) for rt_timer_check
    clock.o(i.rt_tick_increase) refers to clock.o(.data) for rt_tick
    clock.o(i.rt_tick_set) refers to context_rvds.o(.text) for rt_hw_interrupt_disable
    clock.o(i.rt_tick_set) refers to clock.o(.data) for rt_tick
    components.o(i.$Sub$$main) refers to components.o(i.rtthread_startup) for rtthread_startup
    components.o(i.main_thread_entry) refers to components.o(i.rt_components_init) for rt_components_init
    components.o(i.main_thread_entry) refers to main.o(i.main) for $Super$$main
    components.o(i.rt_application_init) refers to thread.o(i.rt_thread_create) for rt_thread_create
    components.o(i.rt_application_init) refers to thread.o(i.rt_thread_startup) for rt_thread_startup
    components.o(i.rt_application_init) refers to components.o(i.main_thread_entry) for main_thread_entry
    components.o(i.rt_components_board_init) refers to components.o(.rti_fn.0.end) for __rt_init_rti_board_start
    components.o(i.rt_components_board_init) refers to components.o(.rti_fn.1.end) for __rt_init_rti_board_end
    components.o(i.rt_components_init) refers to components.o(.rti_fn.1.end) for __rt_init_rti_board_end
    components.o(i.rt_components_init) refers to components.o(.rti_fn.6.end) for __rt_init_rti_end
    components.o(i.rtthread_startup) refers to context_rvds.o(.text) for rt_hw_interrupt_disable
    components.o(i.rtthread_startup) refers to board.o(i.rt_hw_board_init) for rt_hw_board_init
    components.o(i.rtthread_startup) refers to kservice.o(i.rt_show_version) for rt_show_version
    components.o(i.rtthread_startup) refers to timer.o(i.rt_system_timer_init) for rt_system_timer_init
    components.o(i.rtthread_startup) refers to scheduler.o(i.rt_system_scheduler_init) for rt_system_scheduler_init
    components.o(i.rtthread_startup) refers to components.o(i.rt_application_init) for rt_application_init
    components.o(i.rtthread_startup) refers to timer.o(i.rt_system_timer_thread_init) for rt_system_timer_thread_init
    components.o(i.rtthread_startup) refers to idle.o(i.rt_thread_idle_init) for rt_thread_idle_init
    components.o(i.rtthread_startup) refers to scheduler.o(i.rt_system_scheduler_start) for rt_system_scheduler_start
    components.o(.rti_fn.0) refers to components.o(i.rti_start) for rti_start
    components.o(.rti_fn.0.end) refers to components.o(i.rti_board_start) for rti_board_start
    components.o(.rti_fn.1.end) refers to components.o(i.rti_board_end) for rti_board_end
    components.o(.rti_fn.6.end) refers to components.o(i.rti_end) for rti_end
    idle.o(i._has_defunct_thread) refers to scheduler.o(.data) for rt_thread_defunct
    idle.o(i.rt_thread_idle_entry) refers to idle.o(i.rt_thread_idle_excute) for rt_thread_idle_excute
    idle.o(i.rt_thread_idle_excute) refers to context_rvds.o(.text) for rt_hw_interrupt_disable
    idle.o(i.rt_thread_idle_excute) refers to idle.o(i._has_defunct_thread) for _has_defunct_thread
    idle.o(i.rt_thread_idle_excute) refers to scheduler.o(i.rt_enter_critical) for rt_enter_critical
    idle.o(i.rt_thread_idle_excute) refers to object.o(i.rt_object_is_systemobject) for rt_object_is_systemobject
    idle.o(i.rt_thread_idle_excute) refers to object.o(i.rt_object_detach) for rt_object_detach
    idle.o(i.rt_thread_idle_excute) refers to scheduler.o(i.rt_exit_critical) for rt_exit_critical
    idle.o(i.rt_thread_idle_excute) refers to mem.o(i.rt_free) for rt_free
    idle.o(i.rt_thread_idle_excute) refers to object.o(i.rt_object_delete) for rt_object_delete
    idle.o(i.rt_thread_idle_excute) refers to scheduler.o(.data) for rt_thread_defunct
    idle.o(i.rt_thread_idle_gethandler) refers to idle.o(.bss) for idle
    idle.o(i.rt_thread_idle_init) refers to thread.o(i.rt_thread_init) for rt_thread_init
    idle.o(i.rt_thread_idle_init) refers to thread.o(i.rt_thread_startup) for rt_thread_startup
    idle.o(i.rt_thread_idle_init) refers to idle.o(.bss) for rt_thread_stack
    idle.o(i.rt_thread_idle_init) refers to idle.o(i.rt_thread_idle_entry) for rt_thread_idle_entry
    ipc.o(i.rt_event_control) refers to context_rvds.o(.text) for rt_hw_interrupt_disable
    ipc.o(i.rt_event_control) refers to ipc.o(i.rt_ipc_list_resume_all) for rt_ipc_list_resume_all
    ipc.o(i.rt_event_control) refers to scheduler.o(i.rt_schedule) for rt_schedule
    ipc.o(i.rt_event_create) refers to object.o(i.rt_object_allocate) for rt_object_allocate
    ipc.o(i.rt_event_create) refers to ipc.o(i.rt_ipc_object_init) for rt_ipc_object_init
    ipc.o(i.rt_event_delete) refers to ipc.o(i.rt_ipc_list_resume_all) for rt_ipc_list_resume_all
    ipc.o(i.rt_event_delete) refers to object.o(i.rt_object_delete) for rt_object_delete
    ipc.o(i.rt_event_detach) refers to ipc.o(i.rt_ipc_list_resume_all) for rt_ipc_list_resume_all
    ipc.o(i.rt_event_detach) refers to object.o(i.rt_object_detach) for rt_object_detach
    ipc.o(i.rt_event_init) refers to object.o(i.rt_object_init) for rt_object_init
    ipc.o(i.rt_event_init) refers to ipc.o(i.rt_ipc_object_init) for rt_ipc_object_init
    ipc.o(i.rt_event_recv) refers to thread.o(i.rt_thread_self) for rt_thread_self
    ipc.o(i.rt_event_recv) refers to context_rvds.o(.text) for rt_hw_interrupt_disable
    ipc.o(i.rt_event_recv) refers to ipc.o(i.rt_ipc_list_suspend) for rt_ipc_list_suspend
    ipc.o(i.rt_event_recv) refers to timer.o(i.rt_timer_control) for rt_timer_control
    ipc.o(i.rt_event_recv) refers to timer.o(i.rt_timer_start) for rt_timer_start
    ipc.o(i.rt_event_recv) refers to scheduler.o(i.rt_schedule) for rt_schedule
    ipc.o(i.rt_event_send) refers to context_rvds.o(.text) for rt_hw_interrupt_disable
    ipc.o(i.rt_event_send) refers to ipc.o(i.rt_list_isempty) for rt_list_isempty
    ipc.o(i.rt_event_send) refers to thread.o(i.rt_thread_resume) for rt_thread_resume
    ipc.o(i.rt_event_send) refers to scheduler.o(i.rt_schedule) for rt_schedule
    ipc.o(i.rt_ipc_list_resume) refers to thread.o(i.rt_thread_resume) for rt_thread_resume
    ipc.o(i.rt_ipc_list_resume_all) refers to context_rvds.o(.text) for rt_hw_interrupt_disable
    ipc.o(i.rt_ipc_list_resume_all) refers to thread.o(i.rt_thread_resume) for rt_thread_resume
    ipc.o(i.rt_ipc_list_resume_all) refers to ipc.o(i.rt_list_isempty) for rt_list_isempty
    ipc.o(i.rt_ipc_list_suspend) refers to thread.o(i.rt_thread_suspend) for rt_thread_suspend
    ipc.o(i.rt_ipc_list_suspend) refers to ipc.o(i.rt_list_insert_before) for rt_list_insert_before
    ipc.o(i.rt_ipc_object_init) refers to ipc.o(i.rt_list_init) for rt_list_init
    ipc.o(i.rt_mb_control) refers to context_rvds.o(.text) for rt_hw_interrupt_disable
    ipc.o(i.rt_mb_control) refers to ipc.o(i.rt_ipc_list_resume_all) for rt_ipc_list_resume_all
    ipc.o(i.rt_mb_control) refers to scheduler.o(i.rt_schedule) for rt_schedule
    ipc.o(i.rt_mb_create) refers to object.o(i.rt_object_allocate) for rt_object_allocate
    ipc.o(i.rt_mb_create) refers to ipc.o(i.rt_ipc_object_init) for rt_ipc_object_init
    ipc.o(i.rt_mb_create) refers to mem.o(i.rt_malloc) for rt_malloc
    ipc.o(i.rt_mb_create) refers to object.o(i.rt_object_delete) for rt_object_delete
    ipc.o(i.rt_mb_create) refers to ipc.o(i.rt_list_init) for rt_list_init
    ipc.o(i.rt_mb_delete) refers to ipc.o(i.rt_ipc_list_resume_all) for rt_ipc_list_resume_all
    ipc.o(i.rt_mb_delete) refers to mem.o(i.rt_free) for rt_free
    ipc.o(i.rt_mb_delete) refers to object.o(i.rt_object_delete) for rt_object_delete
    ipc.o(i.rt_mb_detach) refers to ipc.o(i.rt_ipc_list_resume_all) for rt_ipc_list_resume_all
    ipc.o(i.rt_mb_detach) refers to object.o(i.rt_object_detach) for rt_object_detach
    ipc.o(i.rt_mb_init) refers to object.o(i.rt_object_init) for rt_object_init
    ipc.o(i.rt_mb_init) refers to ipc.o(i.rt_ipc_object_init) for rt_ipc_object_init
    ipc.o(i.rt_mb_init) refers to ipc.o(i.rt_list_init) for rt_list_init
    ipc.o(i.rt_mb_recv) refers to thread.o(i.rt_thread_self) for rt_thread_self
    ipc.o(i.rt_mb_recv) refers to context_rvds.o(.text) for rt_hw_interrupt_disable
    ipc.o(i.rt_mb_recv) refers to ipc.o(i.rt_ipc_list_suspend) for rt_ipc_list_suspend
    ipc.o(i.rt_mb_recv) refers to clock.o(i.rt_tick_get) for rt_tick_get
    ipc.o(i.rt_mb_recv) refers to timer.o(i.rt_timer_control) for rt_timer_control
    ipc.o(i.rt_mb_recv) refers to timer.o(i.rt_timer_start) for rt_timer_start
    ipc.o(i.rt_mb_recv) refers to scheduler.o(i.rt_schedule) for rt_schedule
    ipc.o(i.rt_mb_recv) refers to ipc.o(i.rt_list_isempty) for rt_list_isempty
    ipc.o(i.rt_mb_recv) refers to ipc.o(i.rt_ipc_list_resume) for rt_ipc_list_resume
    ipc.o(i.rt_mb_send) refers to ipc.o(i.rt_mb_send_wait) for rt_mb_send_wait
    ipc.o(i.rt_mb_send_wait) refers to thread.o(i.rt_thread_self) for rt_thread_self
    ipc.o(i.rt_mb_send_wait) refers to context_rvds.o(.text) for rt_hw_interrupt_disable
    ipc.o(i.rt_mb_send_wait) refers to ipc.o(i.rt_ipc_list_suspend) for rt_ipc_list_suspend
    ipc.o(i.rt_mb_send_wait) refers to clock.o(i.rt_tick_get) for rt_tick_get
    ipc.o(i.rt_mb_send_wait) refers to timer.o(i.rt_timer_control) for rt_timer_control
    ipc.o(i.rt_mb_send_wait) refers to timer.o(i.rt_timer_start) for rt_timer_start
    ipc.o(i.rt_mb_send_wait) refers to scheduler.o(i.rt_schedule) for rt_schedule
    ipc.o(i.rt_mb_send_wait) refers to ipc.o(i.rt_list_isempty) for rt_list_isempty
    ipc.o(i.rt_mb_send_wait) refers to ipc.o(i.rt_ipc_list_resume) for rt_ipc_list_resume
    ipc.o(i.rt_mq_control) refers to context_rvds.o(.text) for rt_hw_interrupt_disable
    ipc.o(i.rt_mq_control) refers to ipc.o(i.rt_ipc_list_resume_all) for rt_ipc_list_resume_all
    ipc.o(i.rt_mq_control) refers to scheduler.o(i.rt_schedule) for rt_schedule
    ipc.o(i.rt_mq_create) refers to object.o(i.rt_object_allocate) for rt_object_allocate
    ipc.o(i.rt_mq_create) refers to ipc.o(i.rt_ipc_object_init) for rt_ipc_object_init
    ipc.o(i.rt_mq_create) refers to mem.o(i.rt_malloc) for rt_malloc
    ipc.o(i.rt_mq_create) refers to ipc.o(i.rt_mq_delete) for rt_mq_delete
    ipc.o(i.rt_mq_delete) refers to ipc.o(i.rt_ipc_list_resume_all) for rt_ipc_list_resume_all
    ipc.o(i.rt_mq_delete) refers to mem.o(i.rt_free) for rt_free
    ipc.o(i.rt_mq_delete) refers to object.o(i.rt_object_delete) for rt_object_delete
    ipc.o(i.rt_mq_detach) refers to ipc.o(i.rt_ipc_list_resume_all) for rt_ipc_list_resume_all
    ipc.o(i.rt_mq_detach) refers to object.o(i.rt_object_detach) for rt_object_detach
    ipc.o(i.rt_mq_init) refers to object.o(i.rt_object_init) for rt_object_init
    ipc.o(i.rt_mq_init) refers to ipc.o(i.rt_ipc_object_init) for rt_ipc_object_init
    ipc.o(i.rt_mq_init) refers to uidiv.o(.text) for __aeabi_uidivmod
    ipc.o(i.rt_mq_recv) refers to thread.o(i.rt_thread_self) for rt_thread_self
    ipc.o(i.rt_mq_recv) refers to context_rvds.o(.text) for rt_hw_interrupt_disable
    ipc.o(i.rt_mq_recv) refers to ipc.o(i.rt_ipc_list_suspend) for rt_ipc_list_suspend
    ipc.o(i.rt_mq_recv) refers to clock.o(i.rt_tick_get) for rt_tick_get
    ipc.o(i.rt_mq_recv) refers to timer.o(i.rt_timer_control) for rt_timer_control
    ipc.o(i.rt_mq_recv) refers to timer.o(i.rt_timer_start) for rt_timer_start
    ipc.o(i.rt_mq_recv) refers to scheduler.o(i.rt_schedule) for rt_schedule
    ipc.o(i.rt_mq_recv) refers to kservice.o(i.rt_memcpy) for rt_memcpy
    ipc.o(i.rt_mq_send) refers to context_rvds.o(.text) for rt_hw_interrupt_disable
    ipc.o(i.rt_mq_send) refers to kservice.o(i.rt_memcpy) for rt_memcpy
    ipc.o(i.rt_mq_send) refers to ipc.o(i.rt_list_isempty) for rt_list_isempty
    ipc.o(i.rt_mq_send) refers to ipc.o(i.rt_ipc_list_resume) for rt_ipc_list_resume
    ipc.o(i.rt_mq_send) refers to scheduler.o(i.rt_schedule) for rt_schedule
    ipc.o(i.rt_mq_urgent) refers to context_rvds.o(.text) for rt_hw_interrupt_disable
    ipc.o(i.rt_mq_urgent) refers to kservice.o(i.rt_memcpy) for rt_memcpy
    ipc.o(i.rt_mq_urgent) refers to ipc.o(i.rt_list_isempty) for rt_list_isempty
    ipc.o(i.rt_mq_urgent) refers to ipc.o(i.rt_ipc_list_resume) for rt_ipc_list_resume
    ipc.o(i.rt_mq_urgent) refers to scheduler.o(i.rt_schedule) for rt_schedule
    ipc.o(i.rt_mutex_create) refers to object.o(i.rt_object_allocate) for rt_object_allocate
    ipc.o(i.rt_mutex_create) refers to ipc.o(i.rt_ipc_object_init) for rt_ipc_object_init
    ipc.o(i.rt_mutex_delete) refers to ipc.o(i.rt_ipc_list_resume_all) for rt_ipc_list_resume_all
    ipc.o(i.rt_mutex_delete) refers to object.o(i.rt_object_delete) for rt_object_delete
    ipc.o(i.rt_mutex_detach) refers to ipc.o(i.rt_ipc_list_resume_all) for rt_ipc_list_resume_all
    ipc.o(i.rt_mutex_detach) refers to object.o(i.rt_object_detach) for rt_object_detach
    ipc.o(i.rt_mutex_init) refers to object.o(i.rt_object_init) for rt_object_init
    ipc.o(i.rt_mutex_init) refers to ipc.o(i.rt_ipc_object_init) for rt_ipc_object_init
    ipc.o(i.rt_mutex_release) refers to thread.o(i.rt_thread_self) for rt_thread_self
    ipc.o(i.rt_mutex_release) refers to context_rvds.o(.text) for rt_hw_interrupt_disable
    ipc.o(i.rt_mutex_release) refers to thread.o(i.rt_thread_control) for rt_thread_control
    ipc.o(i.rt_mutex_release) refers to ipc.o(i.rt_list_isempty) for rt_list_isempty
    ipc.o(i.rt_mutex_release) refers to ipc.o(i.rt_ipc_list_resume) for rt_ipc_list_resume
    ipc.o(i.rt_mutex_release) refers to scheduler.o(i.rt_schedule) for rt_schedule
    ipc.o(i.rt_mutex_take) refers to thread.o(i.rt_thread_self) for rt_thread_self
    ipc.o(i.rt_mutex_take) refers to context_rvds.o(.text) for rt_hw_interrupt_disable
    ipc.o(i.rt_mutex_take) refers to thread.o(i.rt_thread_control) for rt_thread_control
    ipc.o(i.rt_mutex_take) refers to ipc.o(i.rt_ipc_list_suspend) for rt_ipc_list_suspend
    ipc.o(i.rt_mutex_take) refers to timer.o(i.rt_timer_control) for rt_timer_control
    ipc.o(i.rt_mutex_take) refers to timer.o(i.rt_timer_start) for rt_timer_start
    ipc.o(i.rt_mutex_take) refers to scheduler.o(i.rt_schedule) for rt_schedule
    ipc.o(i.rt_sem_control) refers to context_rvds.o(.text) for rt_hw_interrupt_disable
    ipc.o(i.rt_sem_control) refers to ipc.o(i.rt_ipc_list_resume_all) for rt_ipc_list_resume_all
    ipc.o(i.rt_sem_control) refers to scheduler.o(i.rt_schedule) for rt_schedule
    ipc.o(i.rt_sem_create) refers to object.o(i.rt_object_allocate) for rt_object_allocate
    ipc.o(i.rt_sem_create) refers to ipc.o(i.rt_ipc_object_init) for rt_ipc_object_init
    ipc.o(i.rt_sem_delete) refers to ipc.o(i.rt_ipc_list_resume_all) for rt_ipc_list_resume_all
    ipc.o(i.rt_sem_delete) refers to object.o(i.rt_object_delete) for rt_object_delete
    ipc.o(i.rt_sem_detach) refers to ipc.o(i.rt_ipc_list_resume_all) for rt_ipc_list_resume_all
    ipc.o(i.rt_sem_detach) refers to object.o(i.rt_object_detach) for rt_object_detach
    ipc.o(i.rt_sem_init) refers to object.o(i.rt_object_init) for rt_object_init
    ipc.o(i.rt_sem_init) refers to ipc.o(i.rt_ipc_object_init) for rt_ipc_object_init
    ipc.o(i.rt_sem_release) refers to context_rvds.o(.text) for rt_hw_interrupt_disable
    ipc.o(i.rt_sem_release) refers to ipc.o(i.rt_list_isempty) for rt_list_isempty
    ipc.o(i.rt_sem_release) refers to ipc.o(i.rt_ipc_list_resume) for rt_ipc_list_resume
    ipc.o(i.rt_sem_release) refers to scheduler.o(i.rt_schedule) for rt_schedule
    ipc.o(i.rt_sem_take) refers to context_rvds.o(.text) for rt_hw_interrupt_disable
    ipc.o(i.rt_sem_take) refers to thread.o(i.rt_thread_self) for rt_thread_self
    ipc.o(i.rt_sem_take) refers to ipc.o(i.rt_ipc_list_suspend) for rt_ipc_list_suspend
    ipc.o(i.rt_sem_take) refers to timer.o(i.rt_timer_control) for rt_timer_control
    ipc.o(i.rt_sem_take) refers to timer.o(i.rt_timer_start) for rt_timer_start
    ipc.o(i.rt_sem_take) refers to scheduler.o(i.rt_schedule) for rt_schedule
    ipc.o(i.rt_sem_trytake) refers to ipc.o(i.rt_sem_take) for rt_sem_take
    irq.o(i.rt_interrupt_enter) refers to context_rvds.o(.text) for rt_hw_interrupt_disable
    irq.o(i.rt_interrupt_enter) refers to irq.o(.data) for rt_interrupt_nest
    irq.o(i.rt_interrupt_get_nest) refers to irq.o(.data) for rt_interrupt_nest
    irq.o(i.rt_interrupt_leave) refers to context_rvds.o(.text) for rt_hw_interrupt_disable
    irq.o(i.rt_interrupt_leave) refers to irq.o(.data) for rt_interrupt_nest
    kservice.o(i.__rt_ffs) refers to kservice.o(.constdata) for __lowest_bit_bitmap
    kservice.o(i._rt_errno) refers to irq.o(i.rt_interrupt_get_nest) for rt_interrupt_get_nest
    kservice.o(i._rt_errno) refers to thread.o(i.rt_thread_self) for rt_thread_self
    kservice.o(i._rt_errno) refers to kservice.o(.data) for __rt_errno
    kservice.o(i.print_number) refers to uidiv.o(.text) for __aeabi_uidivmod
    kservice.o(i.print_number) refers to kservice.o(.constdata) for large_digits
    kservice.o(i.rt_free_align) refers to mem.o(i.rt_free) for rt_free
    kservice.o(i.rt_get_errno) refers to irq.o(i.rt_interrupt_get_nest) for rt_interrupt_get_nest
    kservice.o(i.rt_get_errno) refers to thread.o(i.rt_thread_self) for rt_thread_self
    kservice.o(i.rt_get_errno) refers to kservice.o(.data) for __rt_errno
    kservice.o(i.rt_kprintf) refers to kservice.o(i.rt_vsnprintf) for rt_vsnprintf
    kservice.o(i.rt_kprintf) refers to kservice.o(i.rt_hw_console_output) for rt_hw_console_output
    kservice.o(i.rt_kprintf) refers to kservice.o(.bss) for rt_log_buf
    kservice.o(i.rt_kputs) refers to kservice.o(i.rt_hw_console_output) for rt_hw_console_output
    kservice.o(i.rt_malloc_align) refers to mem.o(i.rt_malloc) for rt_malloc
    kservice.o(i.rt_set_errno) refers to irq.o(i.rt_interrupt_get_nest) for rt_interrupt_get_nest
    kservice.o(i.rt_set_errno) refers to thread.o(i.rt_thread_self) for rt_thread_self
    kservice.o(i.rt_set_errno) refers to kservice.o(.data) for __rt_errno
    kservice.o(i.rt_show_version) refers to kservice.o(i.rt_kprintf) for rt_kprintf
    kservice.o(i.rt_snprintf) refers to kservice.o(i.rt_vsnprintf) for rt_vsnprintf
    kservice.o(i.rt_sprintf) refers to kservice.o(i.rt_vsprintf) for rt_vsprintf
    kservice.o(i.rt_strdup) refers to kservice.o(i.rt_strlen) for rt_strlen
    kservice.o(i.rt_strdup) refers to mem.o(i.rt_malloc) for rt_malloc
    kservice.o(i.rt_strdup) refers to kservice.o(i.rt_memcpy) for rt_memcpy
    kservice.o(i.rt_strstr) refers to kservice.o(i.rt_strlen) for rt_strlen
    kservice.o(i.rt_strstr) refers to kservice.o(i.rt_memcmp) for rt_memcmp
    kservice.o(i.rt_vsnprintf) refers to kservice.o(i.skip_atoi) for skip_atoi
    kservice.o(i.rt_vsnprintf) refers to kservice.o(i.rt_strlen) for rt_strlen
    kservice.o(i.rt_vsnprintf) refers to kservice.o(i.print_number) for print_number
    kservice.o(i.rt_vsprintf) refers to kservice.o(i.rt_vsnprintf) for rt_vsnprintf
    mem.o(i.list_mem) refers to kservice.o(i.rt_kprintf) for rt_kprintf
    mem.o(i.list_mem) refers to mem.o(.data) for mem_size_aligned
    mem.o(i.plug_holes) refers to mem.o(.data) for heap_ptr
    mem.o(i.rt_calloc) refers to mem.o(i.rt_malloc) for rt_malloc
    mem.o(i.rt_calloc) refers to kservice.o(i.rt_memset) for rt_memset
    mem.o(i.rt_free) refers to ipc.o(i.rt_sem_take) for rt_sem_take
    mem.o(i.rt_free) refers to kservice.o(i.rt_kprintf) for rt_kprintf
    mem.o(i.rt_free) refers to mem.o(i.plug_holes) for plug_holes
    mem.o(i.rt_free) refers to ipc.o(i.rt_sem_release) for rt_sem_release
    mem.o(i.rt_free) refers to mem.o(.data) for heap_ptr
    mem.o(i.rt_free) refers to mem.o(.bss) for heap_sem
    mem.o(i.rt_malloc) refers to ipc.o(i.rt_sem_take) for rt_sem_take
    mem.o(i.rt_malloc) refers to ipc.o(i.rt_sem_release) for rt_sem_release
    mem.o(i.rt_malloc) refers to mem.o(.data) for mem_size_aligned
    mem.o(i.rt_malloc) refers to mem.o(.bss) for heap_sem
    mem.o(i.rt_memory_info) refers to mem.o(.data) for mem_size_aligned
    mem.o(i.rt_realloc) refers to mem.o(i.rt_free) for rt_free
    mem.o(i.rt_realloc) refers to mem.o(i.rt_malloc) for rt_malloc
    mem.o(i.rt_realloc) refers to ipc.o(i.rt_sem_take) for rt_sem_take
    mem.o(i.rt_realloc) refers to ipc.o(i.rt_sem_release) for rt_sem_release
    mem.o(i.rt_realloc) refers to mem.o(i.plug_holes) for plug_holes
    mem.o(i.rt_realloc) refers to kservice.o(i.rt_memcpy) for rt_memcpy
    mem.o(i.rt_realloc) refers to mem.o(.data) for mem_size_aligned
    mem.o(i.rt_realloc) refers to mem.o(.bss) for heap_sem
    mem.o(i.rt_system_heap_init) refers to kservice.o(i.rt_kprintf) for rt_kprintf
    mem.o(i.rt_system_heap_init) refers to ipc.o(i.rt_sem_init) for rt_sem_init
    mem.o(i.rt_system_heap_init) refers to mem.o(.data) for mem_size_aligned
    mem.o(i.rt_system_heap_init) refers to mem.o(.bss) for heap_sem
    mem.o(FSymTab) refers to mem.o(.constdata) for __fsym_list_mem_name
    mem.o(FSymTab) refers to mem.o(i.list_mem) for list_mem
    object.o(i.rt_object_allocate) refers to object.o(i.rt_object_get_information) for rt_object_get_information
    object.o(i.rt_object_allocate) refers to mem.o(i.rt_malloc) for rt_malloc
    object.o(i.rt_object_allocate) refers to kservice.o(i.rt_memset) for rt_memset
    object.o(i.rt_object_allocate) refers to kservice.o(i.rt_strncpy) for rt_strncpy
    object.o(i.rt_object_allocate) refers to context_rvds.o(.text) for rt_hw_interrupt_disable
    object.o(i.rt_object_allocate) refers to object.o(i.rt_list_insert_after) for rt_list_insert_after
    object.o(i.rt_object_delete) refers to context_rvds.o(.text) for rt_hw_interrupt_disable
    object.o(i.rt_object_delete) refers to object.o(i.rt_list_remove) for rt_list_remove
    object.o(i.rt_object_delete) refers to mem.o(i.rt_free) for rt_free
    object.o(i.rt_object_detach) refers to context_rvds.o(.text) for rt_hw_interrupt_disable
    object.o(i.rt_object_detach) refers to object.o(i.rt_list_remove) for rt_list_remove
    object.o(i.rt_object_find) refers to scheduler.o(i.rt_enter_critical) for rt_enter_critical
    object.o(i.rt_object_find) refers to object.o(i.rt_object_get_information) for rt_object_get_information
    object.o(i.rt_object_find) refers to kservice.o(i.rt_strncmp) for rt_strncmp
    object.o(i.rt_object_find) refers to scheduler.o(i.rt_exit_critical) for rt_exit_critical
    object.o(i.rt_object_get_information) refers to object.o(.data) for rt_object_container
    object.o(i.rt_object_init) refers to object.o(i.rt_object_get_information) for rt_object_get_information
    object.o(i.rt_object_init) refers to scheduler.o(i.rt_enter_critical) for rt_enter_critical
    object.o(i.rt_object_init) refers to scheduler.o(i.rt_exit_critical) for rt_exit_critical
    object.o(i.rt_object_init) refers to kservice.o(i.rt_strncpy) for rt_strncpy
    object.o(i.rt_object_init) refers to context_rvds.o(.text) for rt_hw_interrupt_disable
    object.o(i.rt_object_init) refers to object.o(i.rt_list_insert_after) for rt_list_insert_after
    scheduler.o(i.rt_critical_level) refers to scheduler.o(.data) for rt_scheduler_lock_nest
    scheduler.o(i.rt_enter_critical) refers to context_rvds.o(.text) for rt_hw_interrupt_disable
    scheduler.o(i.rt_enter_critical) refers to scheduler.o(.data) for rt_scheduler_lock_nest
    scheduler.o(i.rt_exit_critical) refers to context_rvds.o(.text) for rt_hw_interrupt_disable
    scheduler.o(i.rt_exit_critical) refers to scheduler.o(i.rt_schedule) for rt_schedule
    scheduler.o(i.rt_exit_critical) refers to scheduler.o(.data) for rt_scheduler_lock_nest
    scheduler.o(i.rt_schedule) refers to context_rvds.o(.text) for rt_hw_interrupt_disable
    scheduler.o(i.rt_schedule) refers to kservice.o(i.__rt_ffs) for __rt_ffs
    scheduler.o(i.rt_schedule) refers to scheduler.o(.data) for rt_scheduler_lock_nest
    scheduler.o(i.rt_schedule) refers to scheduler.o(.bss) for rt_thread_priority_table
    scheduler.o(i.rt_schedule) refers to irq.o(.data) for rt_interrupt_nest
    scheduler.o(i.rt_schedule_insert_thread) refers to context_rvds.o(.text) for rt_hw_interrupt_disable
    scheduler.o(i.rt_schedule_insert_thread) refers to scheduler.o(.bss) for rt_thread_priority_table
    scheduler.o(i.rt_schedule_insert_thread) refers to scheduler.o(.data) for rt_thread_ready_priority_group
    scheduler.o(i.rt_schedule_remove_thread) refers to context_rvds.o(.text) for rt_hw_interrupt_disable
    scheduler.o(i.rt_schedule_remove_thread) refers to scheduler.o(.bss) for rt_thread_priority_table
    scheduler.o(i.rt_schedule_remove_thread) refers to scheduler.o(.data) for rt_thread_ready_priority_group
    scheduler.o(i.rt_system_scheduler_init) refers to scheduler.o(i.rt_list_init) for rt_list_init
    scheduler.o(i.rt_system_scheduler_init) refers to scheduler.o(.data) for rt_scheduler_lock_nest
    scheduler.o(i.rt_system_scheduler_init) refers to scheduler.o(.bss) for rt_thread_priority_table
    scheduler.o(i.rt_system_scheduler_start) refers to kservice.o(i.__rt_ffs) for __rt_ffs
    scheduler.o(i.rt_system_scheduler_start) refers to context_rvds.o(.text) for rt_hw_context_switch_to
    scheduler.o(i.rt_system_scheduler_start) refers to scheduler.o(.data) for rt_thread_ready_priority_group
    scheduler.o(i.rt_system_scheduler_start) refers to scheduler.o(.bss) for rt_thread_priority_table
    thread.o(i._rt_thread_init) refers to kservice.o(i.rt_memset) for rt_memset
    thread.o(i._rt_thread_init) refers to cpuport.o(i.rt_hw_stack_init) for rt_hw_stack_init
    thread.o(i._rt_thread_init) refers to timer.o(i.rt_timer_init) for rt_timer_init
    thread.o(i._rt_thread_init) refers to thread.o(i.rt_thread_exit) for rt_thread_exit
    thread.o(i._rt_thread_init) refers to thread.o(i.rt_thread_timeout) for rt_thread_timeout
    thread.o(i.rt_thread_control) refers to context_rvds.o(.text) for rt_hw_interrupt_disable
    thread.o(i.rt_thread_control) refers to scheduler.o(i.rt_schedule_remove_thread) for rt_schedule_remove_thread
    thread.o(i.rt_thread_control) refers to scheduler.o(i.rt_schedule_insert_thread) for rt_schedule_insert_thread
    thread.o(i.rt_thread_control) refers to thread.o(i.rt_thread_startup) for rt_thread_startup
    thread.o(i.rt_thread_control) refers to thread.o(i.rt_thread_delete) for rt_thread_delete
    thread.o(i.rt_thread_create) refers to object.o(i.rt_object_allocate) for rt_object_allocate
    thread.o(i.rt_thread_create) refers to mem.o(i.rt_malloc) for rt_malloc
    thread.o(i.rt_thread_create) refers to object.o(i.rt_object_delete) for rt_object_delete
    thread.o(i.rt_thread_create) refers to thread.o(i._rt_thread_init) for _rt_thread_init
    thread.o(i.rt_thread_delay) refers to thread.o(i.rt_thread_sleep) for rt_thread_sleep
    thread.o(i.rt_thread_delete) refers to scheduler.o(i.rt_schedule_remove_thread) for rt_schedule_remove_thread
    thread.o(i.rt_thread_delete) refers to timer.o(i.rt_timer_detach) for rt_timer_detach
    thread.o(i.rt_thread_delete) refers to context_rvds.o(.text) for rt_hw_interrupt_disable
    thread.o(i.rt_thread_delete) refers to thread.o(i.rt_list_insert_after) for rt_list_insert_after
    thread.o(i.rt_thread_delete) refers to scheduler.o(.data) for rt_thread_defunct
    thread.o(i.rt_thread_detach) refers to scheduler.o(i.rt_schedule_remove_thread) for rt_schedule_remove_thread
    thread.o(i.rt_thread_detach) refers to timer.o(i.rt_timer_detach) for rt_timer_detach
    thread.o(i.rt_thread_detach) refers to object.o(i.rt_object_is_systemobject) for rt_object_is_systemobject
    thread.o(i.rt_thread_detach) refers to object.o(i.rt_object_detach) for rt_object_detach
    thread.o(i.rt_thread_detach) refers to context_rvds.o(.text) for rt_hw_interrupt_disable
    thread.o(i.rt_thread_detach) refers to thread.o(i.rt_list_insert_after) for rt_list_insert_after
    thread.o(i.rt_thread_detach) refers to scheduler.o(.data) for rt_thread_defunct
    thread.o(i.rt_thread_exit) refers to context_rvds.o(.text) for rt_hw_interrupt_disable
    thread.o(i.rt_thread_exit) refers to scheduler.o(i.rt_schedule_remove_thread) for rt_schedule_remove_thread
    thread.o(i.rt_thread_exit) refers to timer.o(i.rt_timer_detach) for rt_timer_detach
    thread.o(i.rt_thread_exit) refers to object.o(i.rt_object_is_systemobject) for rt_object_is_systemobject
    thread.o(i.rt_thread_exit) refers to object.o(i.rt_object_detach) for rt_object_detach
    thread.o(i.rt_thread_exit) refers to thread.o(i.rt_list_insert_after) for rt_list_insert_after
    thread.o(i.rt_thread_exit) refers to scheduler.o(i.rt_schedule) for rt_schedule
    thread.o(i.rt_thread_exit) refers to scheduler.o(.data) for rt_current_thread
    thread.o(i.rt_thread_find) refers to thread.o(i.rt_thread_self) for rt_thread_self
    thread.o(i.rt_thread_find) refers to scheduler.o(i.rt_enter_critical) for rt_enter_critical
    thread.o(i.rt_thread_find) refers to object.o(i.rt_object_get_information) for rt_object_get_information
    thread.o(i.rt_thread_find) refers to kservice.o(i.rt_strncmp) for rt_strncmp
    thread.o(i.rt_thread_find) refers to scheduler.o(i.rt_exit_critical) for rt_exit_critical
    thread.o(i.rt_thread_init) refers to object.o(i.rt_object_init) for rt_object_init
    thread.o(i.rt_thread_init) refers to thread.o(i._rt_thread_init) for _rt_thread_init
    thread.o(i.rt_thread_mdelay) refers to clock.o(i.rt_tick_from_millisecond) for rt_tick_from_millisecond
    thread.o(i.rt_thread_mdelay) refers to thread.o(i.rt_thread_sleep) for rt_thread_sleep
    thread.o(i.rt_thread_resume) refers to context_rvds.o(.text) for rt_hw_interrupt_disable
    thread.o(i.rt_thread_resume) refers to thread.o(i.rt_list_remove) for rt_list_remove
    thread.o(i.rt_thread_resume) refers to timer.o(i.rt_timer_stop) for rt_timer_stop
    thread.o(i.rt_thread_resume) refers to scheduler.o(i.rt_schedule_insert_thread) for rt_schedule_insert_thread
    thread.o(i.rt_thread_self) refers to scheduler.o(.data) for rt_current_thread
    thread.o(i.rt_thread_sleep) refers to context_rvds.o(.text) for rt_hw_interrupt_disable
    thread.o(i.rt_thread_sleep) refers to thread.o(i.rt_thread_suspend) for rt_thread_suspend
    thread.o(i.rt_thread_sleep) refers to timer.o(i.rt_timer_control) for rt_timer_control
    thread.o(i.rt_thread_sleep) refers to timer.o(i.rt_timer_start) for rt_timer_start
    thread.o(i.rt_thread_sleep) refers to scheduler.o(i.rt_schedule) for rt_schedule
    thread.o(i.rt_thread_sleep) refers to scheduler.o(.data) for rt_current_thread
    thread.o(i.rt_thread_startup) refers to thread.o(i.rt_thread_resume) for rt_thread_resume
    thread.o(i.rt_thread_startup) refers to thread.o(i.rt_thread_self) for rt_thread_self
    thread.o(i.rt_thread_startup) refers to scheduler.o(i.rt_schedule) for rt_schedule
    thread.o(i.rt_thread_suspend) refers to context_rvds.o(.text) for rt_hw_interrupt_disable
    thread.o(i.rt_thread_suspend) refers to scheduler.o(i.rt_schedule_remove_thread) for rt_schedule_remove_thread
    thread.o(i.rt_thread_suspend) refers to timer.o(i.rt_timer_stop) for rt_timer_stop
    thread.o(i.rt_thread_timeout) refers to thread.o(i.rt_list_remove) for rt_list_remove
    thread.o(i.rt_thread_timeout) refers to scheduler.o(i.rt_schedule_insert_thread) for rt_schedule_insert_thread
    thread.o(i.rt_thread_timeout) refers to scheduler.o(i.rt_schedule) for rt_schedule
    thread.o(i.rt_thread_yield) refers to context_rvds.o(.text) for rt_hw_interrupt_disable
    thread.o(i.rt_thread_yield) refers to thread.o(i.rt_list_remove) for rt_list_remove
    thread.o(i.rt_thread_yield) refers to scheduler.o(i.rt_schedule) for rt_schedule
    thread.o(i.rt_thread_yield) refers to scheduler.o(.data) for rt_current_thread
    thread.o(i.rt_thread_yield) refers to scheduler.o(.bss) for rt_thread_priority_table
    timer.o(i._rt_timer_init) refers to timer.o(i.rt_list_init) for rt_list_init
    timer.o(i.rt_system_timer_init) refers to timer.o(i.rt_list_init) for rt_list_init
    timer.o(i.rt_system_timer_init) refers to timer.o(.data) for rt_timer_list
    timer.o(i.rt_timer_check) refers to clock.o(i.rt_tick_get) for rt_tick_get
    timer.o(i.rt_timer_check) refers to context_rvds.o(.text) for rt_hw_interrupt_disable
    timer.o(i.rt_timer_check) refers to timer.o(i._rt_timer_remove) for _rt_timer_remove
    timer.o(i.rt_timer_check) refers to timer.o(i.rt_timer_start) for rt_timer_start
    timer.o(i.rt_timer_check) refers to timer.o(i.rt_list_isempty) for rt_list_isempty
    timer.o(i.rt_timer_check) refers to timer.o(.data) for rt_timer_list
    timer.o(i.rt_timer_create) refers to object.o(i.rt_object_allocate) for rt_object_allocate
    timer.o(i.rt_timer_create) refers to timer.o(i._rt_timer_init) for _rt_timer_init
    timer.o(i.rt_timer_delete) refers to context_rvds.o(.text) for rt_hw_interrupt_disable
    timer.o(i.rt_timer_delete) refers to timer.o(i._rt_timer_remove) for _rt_timer_remove
    timer.o(i.rt_timer_delete) refers to object.o(i.rt_object_delete) for rt_object_delete
    timer.o(i.rt_timer_detach) refers to context_rvds.o(.text) for rt_hw_interrupt_disable
    timer.o(i.rt_timer_detach) refers to timer.o(i._rt_timer_remove) for _rt_timer_remove
    timer.o(i.rt_timer_detach) refers to object.o(i.rt_object_detach) for rt_object_detach
    timer.o(i.rt_timer_init) refers to object.o(i.rt_object_init) for rt_object_init
    timer.o(i.rt_timer_init) refers to timer.o(i._rt_timer_init) for _rt_timer_init
    timer.o(i.rt_timer_list_next_timeout) refers to timer.o(i.rt_list_isempty) for rt_list_isempty
    timer.o(i.rt_timer_next_timeout_tick) refers to timer.o(i.rt_timer_list_next_timeout) for rt_timer_list_next_timeout
    timer.o(i.rt_timer_next_timeout_tick) refers to timer.o(.data) for rt_timer_list
    timer.o(i.rt_timer_start) refers to context_rvds.o(.text) for rt_hw_interrupt_disable
    timer.o(i.rt_timer_start) refers to timer.o(i._rt_timer_remove) for _rt_timer_remove
    timer.o(i.rt_timer_start) refers to clock.o(i.rt_tick_get) for rt_tick_get
    timer.o(i.rt_timer_start) refers to timer.o(i.rt_list_insert_after) for rt_list_insert_after
    timer.o(i.rt_timer_start) refers to timer.o(.data) for rt_timer_list
    timer.o(i.rt_timer_stop) refers to context_rvds.o(.text) for rt_hw_interrupt_disable
    timer.o(i.rt_timer_stop) refers to timer.o(i._rt_timer_remove) for _rt_timer_remove
    cpuport.o(i.rt_hw_hard_fault_exception) refers to kservice.o(i.rt_kprintf) for rt_kprintf
    cpuport.o(i.rt_hw_hard_fault_exception) refers to cmd.o(i.list_thread) for list_thread
    cpuport.o(i.rt_hw_hard_fault_exception) refers to scheduler.o(.data) for rt_current_thread
    context_rvds.o(.text) refers to cpuport.o(i.rt_hw_hard_fault_exception) for rt_hw_hard_fault_exception
    context_rvds.o(.text) refers to cpuport.o(.data) for rt_thread_switch_interrupt_flag
    cmd.o(i.hello) refers to kservice.o(i.rt_kprintf) for rt_kprintf
    cmd.o(i.list) refers to kservice.o(i.rt_kprintf) for rt_kprintf
    cmd.o(i.list) refers to strncmp.o(.text) for strncmp
    cmd.o(i.list) refers to shell.o(.data) for _syscall_table_begin
    cmd.o(i.list_event) refers to cmd.o(i.list_find_init) for list_find_init
    cmd.o(i.list_event) refers to kservice.o(i.rt_kprintf) for rt_kprintf
    cmd.o(i.list_event) refers to cmd.o(i.object_split) for object_split
    cmd.o(i.list_event) refers to cmd.o(i.list_get_next) for list_get_next
    cmd.o(i.list_event) refers to context_rvds.o(.text) for rt_hw_interrupt_disable
    cmd.o(i.list_event) refers to cmd.o(i.rt_list_isempty) for rt_list_isempty
    cmd.o(i.list_event) refers to cmd.o(i.rt_list_len) for rt_list_len
    cmd.o(i.list_event) refers to cmd.o(i.show_wait_queue) for show_wait_queue
    cmd.o(i.list_find_init) refers to object.o(i.rt_object_get_information) for rt_object_get_information
    cmd.o(i.list_get_next) refers to context_rvds.o(.text) for rt_hw_interrupt_disable
    cmd.o(i.list_mailbox) refers to cmd.o(i.list_find_init) for list_find_init
    cmd.o(i.list_mailbox) refers to kservice.o(i.rt_kprintf) for rt_kprintf
    cmd.o(i.list_mailbox) refers to cmd.o(i.object_split) for object_split
    cmd.o(i.list_mailbox) refers to cmd.o(i.list_get_next) for list_get_next
    cmd.o(i.list_mailbox) refers to context_rvds.o(.text) for rt_hw_interrupt_disable
    cmd.o(i.list_mailbox) refers to cmd.o(i.rt_list_isempty) for rt_list_isempty
    cmd.o(i.list_mailbox) refers to cmd.o(i.rt_list_len) for rt_list_len
    cmd.o(i.list_mailbox) refers to cmd.o(i.show_wait_queue) for show_wait_queue
    cmd.o(i.list_msgqueue) refers to cmd.o(i.list_find_init) for list_find_init
    cmd.o(i.list_msgqueue) refers to kservice.o(i.rt_kprintf) for rt_kprintf
    cmd.o(i.list_msgqueue) refers to cmd.o(i.object_split) for object_split
    cmd.o(i.list_msgqueue) refers to cmd.o(i.list_get_next) for list_get_next
    cmd.o(i.list_msgqueue) refers to context_rvds.o(.text) for rt_hw_interrupt_disable
    cmd.o(i.list_msgqueue) refers to cmd.o(i.rt_list_isempty) for rt_list_isempty
    cmd.o(i.list_msgqueue) refers to cmd.o(i.rt_list_len) for rt_list_len
    cmd.o(i.list_msgqueue) refers to cmd.o(i.show_wait_queue) for show_wait_queue
    cmd.o(i.list_mutex) refers to cmd.o(i.list_find_init) for list_find_init
    cmd.o(i.list_mutex) refers to kservice.o(i.rt_kprintf) for rt_kprintf
    cmd.o(i.list_mutex) refers to cmd.o(i.object_split) for object_split
    cmd.o(i.list_mutex) refers to cmd.o(i.list_get_next) for list_get_next
    cmd.o(i.list_mutex) refers to context_rvds.o(.text) for rt_hw_interrupt_disable
    cmd.o(i.list_mutex) refers to cmd.o(i.rt_list_len) for rt_list_len
    cmd.o(i.list_sem) refers to cmd.o(i.list_find_init) for list_find_init
    cmd.o(i.list_sem) refers to kservice.o(i.rt_kprintf) for rt_kprintf
    cmd.o(i.list_sem) refers to cmd.o(i.object_split) for object_split
    cmd.o(i.list_sem) refers to cmd.o(i.list_get_next) for list_get_next
    cmd.o(i.list_sem) refers to context_rvds.o(.text) for rt_hw_interrupt_disable
    cmd.o(i.list_sem) refers to cmd.o(i.rt_list_isempty) for rt_list_isempty
    cmd.o(i.list_sem) refers to cmd.o(i.rt_list_len) for rt_list_len
    cmd.o(i.list_sem) refers to cmd.o(i.show_wait_queue) for show_wait_queue
    cmd.o(i.list_thread) refers to cmd.o(i.list_find_init) for list_find_init
    cmd.o(i.list_thread) refers to kservice.o(i.rt_kprintf) for rt_kprintf
    cmd.o(i.list_thread) refers to cmd.o(i.object_split) for object_split
    cmd.o(i.list_thread) refers to cmd.o(i.list_get_next) for list_get_next
    cmd.o(i.list_thread) refers to context_rvds.o(.text) for rt_hw_interrupt_disable
    cmd.o(i.list_thread) refers to memcpya.o(.text) for __aeabi_memcpy4
    cmd.o(i.list_thread) refers to uidiv.o(.text) for __aeabi_uidivmod
    cmd.o(i.list_thread) refers to cmd.o(.conststring) for .conststring
    cmd.o(i.list_timer) refers to cmd.o(i.list_find_init) for list_find_init
    cmd.o(i.list_timer) refers to kservice.o(i.rt_kprintf) for rt_kprintf
    cmd.o(i.list_timer) refers to cmd.o(i.object_split) for object_split
    cmd.o(i.list_timer) refers to cmd.o(i.list_get_next) for list_get_next
    cmd.o(i.list_timer) refers to context_rvds.o(.text) for rt_hw_interrupt_disable
    cmd.o(i.list_timer) refers to clock.o(i.rt_tick_get) for rt_tick_get
    cmd.o(i.object_split) refers to kservice.o(i.rt_kprintf) for rt_kprintf
    cmd.o(i.show_wait_queue) refers to kservice.o(i.rt_kprintf) for rt_kprintf
    cmd.o(i.version) refers to kservice.o(i.rt_show_version) for rt_show_version
    cmd.o(FSymTab) refers to cmd.o(.constdata) for __fsym_hello_name
    cmd.o(FSymTab) refers to cmd.o(i.hello) for hello
    cmd.o(FSymTab) refers to cmd.o(i.version) for version
    cmd.o(FSymTab) refers to cmd.o(i.list_thread) for list_thread
    cmd.o(FSymTab) refers to cmd.o(i.list_sem) for list_sem
    cmd.o(FSymTab) refers to cmd.o(i.list_event) for list_event
    cmd.o(FSymTab) refers to cmd.o(i.list_mutex) for list_mutex
    cmd.o(FSymTab) refers to cmd.o(i.list_mailbox) for list_mailbox
    cmd.o(FSymTab) refers to cmd.o(i.list_msgqueue) for list_msgqueue
    cmd.o(FSymTab) refers to cmd.o(i.list_timer) for list_timer
    cmd.o(FSymTab) refers to cmd.o(i.list) for list
    msh.o(i._msh_exec_cmd) refers to msh.o(i.msh_get_cmd) for msh_get_cmd
    msh.o(i._msh_exec_cmd) refers to memseta.o(.text) for __aeabi_memclr4
    msh.o(i._msh_exec_cmd) refers to msh.o(i.msh_split) for msh_split
    msh.o(i.cmd_free) refers to mem.o(i.list_mem) for list_mem
    msh.o(i.cmd_ps) refers to cmd.o(i.list_thread) for list_thread
    msh.o(i.msh_auto_complete) refers to msh.o(i.msh_help) for msh_help
    msh.o(i.msh_auto_complete) refers to strncmp.o(.text) for strncmp
    msh.o(i.msh_auto_complete) refers to strlen.o(.text) for strlen
    msh.o(i.msh_auto_complete) refers to msh.o(i.str_common) for str_common
    msh.o(i.msh_auto_complete) refers to kservice.o(i.rt_kprintf) for rt_kprintf
    msh.o(i.msh_auto_complete) refers to kservice.o(i.rt_strncpy) for rt_strncpy
    msh.o(i.msh_auto_complete) refers to shell.o(.data) for _syscall_table_begin
    msh.o(i.msh_exec) refers to msh.o(i._msh_exec_cmd) for _msh_exec_cmd
    msh.o(i.msh_exec) refers to kservice.o(i.rt_kprintf) for rt_kprintf
    msh.o(i.msh_get_cmd) refers to strncmp.o(.text) for strncmp
    msh.o(i.msh_get_cmd) refers to shell.o(.data) for _syscall_table_begin
    msh.o(i.msh_help) refers to kservice.o(i.rt_kprintf) for rt_kprintf
    msh.o(i.msh_help) refers to strncmp.o(.text) for strncmp
    msh.o(i.msh_help) refers to shell.o(.data) for _syscall_table_begin
    msh.o(i.msh_split) refers to kservice.o(i.rt_kprintf) for rt_kprintf
    msh.o(FSymTab) refers to msh.o(.constdata) for __fsym___cmd_help_name
    msh.o(FSymTab) refers to msh.o(i.msh_help) for msh_help
    msh.o(FSymTab) refers to msh.o(i.cmd_ps) for cmd_ps
    msh.o(FSymTab) refers to msh.o(i.cmd_free) for cmd_free
    shell.o(i.finsh_get_echo) refers to shell.o(.data) for shell
    shell.o(i.finsh_get_prompt) refers to strncpy.o(.text) for strncpy
    shell.o(i.finsh_get_prompt) refers to msh.o(i.msh_is_used) for msh_is_used
    shell.o(i.finsh_get_prompt) refers to strcpy.o(.text) for strcpy
    shell.o(i.finsh_get_prompt) refers to strcat.o(.text) for strcat
    shell.o(i.finsh_get_prompt) refers to shell.o(.data) for shell
    shell.o(i.finsh_get_prompt) refers to shell.o(.bss) for finsh_prompt
    shell.o(i.finsh_get_prompt_mode) refers to shell.o(.data) for shell
    shell.o(i.finsh_set_echo) refers to shell.o(.data) for shell
    shell.o(i.finsh_set_prompt) refers to mem.o(i.rt_free) for rt_free
    shell.o(i.finsh_set_prompt) refers to strlen.o(.text) for strlen
    shell.o(i.finsh_set_prompt) refers to mem.o(i.rt_malloc) for rt_malloc
    shell.o(i.finsh_set_prompt) refers to strcpy.o(.text) for strcpy
    shell.o(i.finsh_set_prompt) refers to shell.o(.data) for finsh_prompt_custom
    shell.o(i.finsh_set_prompt_mode) refers to shell.o(.data) for shell
    shell.o(i.finsh_system_function_init) refers to shell.o(.data) for _syscall_table_begin
    shell.o(i.finsh_system_init) refers to shell.o(i.finsh_system_function_init) for finsh_system_function_init
    shell.o(i.finsh_system_init) refers to mem.o(i.rt_calloc) for rt_calloc
    shell.o(i.finsh_system_init) refers to kservice.o(i.rt_kprintf) for rt_kprintf
    shell.o(i.finsh_system_init) refers to thread.o(i.rt_thread_create) for rt_thread_create
    shell.o(i.finsh_system_init) refers to ipc.o(i.rt_sem_init) for rt_sem_init
    shell.o(i.finsh_system_init) refers to shell.o(i.finsh_set_prompt_mode) for finsh_set_prompt_mode
    shell.o(i.finsh_system_init) refers to thread.o(i.rt_thread_startup) for rt_thread_startup
    shell.o(i.finsh_system_init) refers to shell.o(.data) for shell
    shell.o(i.finsh_system_init) refers to shell.o(i.finsh_thread_entry) for finsh_thread_entry
    shell.o(i.finsh_system_var_init) refers to shell.o(.data) for _sysvar_table_begin
    shell.o(i.finsh_thread_entry) refers to shell.o(i.finsh_get_prompt) for finsh_get_prompt
    shell.o(i.finsh_thread_entry) refers to kservice.o(i.rt_kprintf) for rt_kprintf
    shell.o(i.finsh_thread_entry) refers to shell.o(i.finsh_getchar) for finsh_getchar
    shell.o(i.finsh_thread_entry) refers to shell.o(i.shell_auto_complete) for shell_auto_complete
    shell.o(i.finsh_thread_entry) refers to strlen.o(.text) for strlen
    shell.o(i.finsh_thread_entry) refers to kservice.o(i.rt_memmove) for rt_memmove
    shell.o(i.finsh_thread_entry) refers to msh.o(i.msh_is_used) for msh_is_used
    shell.o(i.finsh_thread_entry) refers to msh.o(i.msh_exec) for msh_exec
    shell.o(i.finsh_thread_entry) refers to memseta.o(.text) for __aeabi_memclr
    shell.o(i.finsh_thread_entry) refers to shell.o(.data) for shell
    shell.o(i.shell_auto_complete) refers to kservice.o(i.rt_kprintf) for rt_kprintf
    shell.o(i.shell_auto_complete) refers to msh.o(i.msh_is_used) for msh_is_used
    shell.o(i.shell_auto_complete) refers to msh.o(i.msh_auto_complete) for msh_auto_complete
    shell.o(i.shell_auto_complete) refers to shell.o(i.finsh_get_prompt) for finsh_get_prompt
    shell.o(.rti_fn.6) refers to shell.o(i.finsh_system_init) for finsh_system_init
    stm32g0xx_hal_gpio.o(i.HAL_GPIO_EXTI_IRQHandler) refers to stm32g0xx_hal_gpio.o(i.HAL_GPIO_EXTI_Rising_Callback) for HAL_GPIO_EXTI_Rising_Callback
    stm32g0xx_hal_gpio.o(i.HAL_GPIO_EXTI_IRQHandler) refers to stm32g0xx_hal_gpio.o(i.HAL_GPIO_EXTI_Falling_Callback) for HAL_GPIO_EXTI_Falling_Callback
    stm32g0xx_hal_adc.o(i.ADC_ConversionStop) refers to stm32g0xx_hal_adc.o(i.LL_ADC_REG_IsConversionOngoing) for LL_ADC_REG_IsConversionOngoing
    stm32g0xx_hal_adc.o(i.ADC_ConversionStop) refers to stm32g0xx_hal_adc.o(i.LL_ADC_IsDisableOngoing) for LL_ADC_IsDisableOngoing
    stm32g0xx_hal_adc.o(i.ADC_ConversionStop) refers to stm32g0xx_hal.o(i.HAL_GetTick) for HAL_GetTick
    stm32g0xx_hal_adc.o(i.ADC_DMAConvCplt) refers to stm32g0xx_hal_adc.o(i.LL_ADC_REG_IsTriggerSourceSWStart) for LL_ADC_REG_IsTriggerSourceSWStart
    stm32g0xx_hal_adc.o(i.ADC_DMAConvCplt) refers to stm32g0xx_hal_adc.o(i.LL_ADC_REG_IsConversionOngoing) for LL_ADC_REG_IsConversionOngoing
    stm32g0xx_hal_adc.o(i.ADC_DMAConvCplt) refers to stm32g0xx_hal_adc.o(i.HAL_ADC_ConvCpltCallback) for HAL_ADC_ConvCpltCallback
    stm32g0xx_hal_adc.o(i.ADC_DMAConvCplt) refers to stm32g0xx_hal_adc.o(i.HAL_ADC_ErrorCallback) for HAL_ADC_ErrorCallback
    stm32g0xx_hal_adc.o(i.ADC_DMAError) refers to stm32g0xx_hal_adc.o(i.HAL_ADC_ErrorCallback) for HAL_ADC_ErrorCallback
    stm32g0xx_hal_adc.o(i.ADC_DMAHalfConvCplt) refers to stm32g0xx_hal_adc.o(i.HAL_ADC_ConvHalfCpltCallback) for HAL_ADC_ConvHalfCpltCallback
    stm32g0xx_hal_adc.o(i.ADC_Disable) refers to stm32g0xx_hal_adc.o(i.LL_ADC_IsDisableOngoing) for LL_ADC_IsDisableOngoing
    stm32g0xx_hal_adc.o(i.ADC_Disable) refers to stm32g0xx_hal_adc.o(i.LL_ADC_IsEnabled) for LL_ADC_IsEnabled
    stm32g0xx_hal_adc.o(i.ADC_Disable) refers to stm32g0xx_hal_adc.o(i.LL_ADC_Disable) for LL_ADC_Disable
    stm32g0xx_hal_adc.o(i.ADC_Disable) refers to stm32g0xx_hal.o(i.HAL_GetTick) for HAL_GetTick
    stm32g0xx_hal_adc.o(i.ADC_Enable) refers to stm32g0xx_hal_adc.o(i.LL_ADC_IsEnabled) for LL_ADC_IsEnabled
    stm32g0xx_hal_adc.o(i.ADC_Enable) refers to stm32g0xx_hal_adc.o(i.LL_ADC_Enable) for LL_ADC_Enable
    stm32g0xx_hal_adc.o(i.ADC_Enable) refers to stm32g0xx_hal.o(i.HAL_GetTick) for HAL_GetTick
    stm32g0xx_hal_adc.o(i.HAL_ADC_AnalogWDGConfig) refers to stm32g0xx_hal_adc.o(i.LL_ADC_REG_IsConversionOngoing) for LL_ADC_REG_IsConversionOngoing
    stm32g0xx_hal_adc.o(i.HAL_ADC_AnalogWDGConfig) refers to stm32g0xx_hal_adc.o(i.LL_ADC_SetAnalogWDMonitChannels) for LL_ADC_SetAnalogWDMonitChannels
    stm32g0xx_hal_adc.o(i.HAL_ADC_ConfigChannel) refers to stm32g0xx_hal_adc.o(i.LL_ADC_REG_IsConversionOngoing) for LL_ADC_REG_IsConversionOngoing
    stm32g0xx_hal_adc.o(i.HAL_ADC_ConfigChannel) refers to stm32g0xx_hal_adc.o(i.LL_ADC_GetCommonPathInternalCh) for LL_ADC_GetCommonPathInternalCh
    stm32g0xx_hal_adc.o(i.HAL_ADC_ConfigChannel) refers to stm32g0xx_hal_adc.o(i.LL_ADC_SetCommonPathInternalCh) for LL_ADC_SetCommonPathInternalCh
    stm32g0xx_hal_adc.o(i.HAL_ADC_ConfigChannel) refers to uidiv.o(.text) for __aeabi_uidivmod
    stm32g0xx_hal_adc.o(i.HAL_ADC_ConfigChannel) refers to system_stm32g0xx.o(.data) for SystemCoreClock
    stm32g0xx_hal_adc.o(i.HAL_ADC_DeInit) refers to stm32g0xx_hal_adc.o(i.ADC_ConversionStop) for ADC_ConversionStop
    stm32g0xx_hal_adc.o(i.HAL_ADC_DeInit) refers to stm32g0xx_hal_adc.o(i.ADC_Disable) for ADC_Disable
    stm32g0xx_hal_adc.o(i.HAL_ADC_DeInit) refers to adc_1.o(i.HAL_ADC_MspDeInit) for HAL_ADC_MspDeInit
    stm32g0xx_hal_adc.o(i.HAL_ADC_IRQHandler) refers to stm32g0xx_hal_adc_ex.o(i.HAL_ADCEx_EndOfSamplingCallback) for HAL_ADCEx_EndOfSamplingCallback
    stm32g0xx_hal_adc.o(i.HAL_ADC_IRQHandler) refers to stm32g0xx_hal_adc.o(i.LL_ADC_REG_IsTriggerSourceSWStart) for LL_ADC_REG_IsTriggerSourceSWStart
    stm32g0xx_hal_adc.o(i.HAL_ADC_IRQHandler) refers to stm32g0xx_hal_adc.o(i.LL_ADC_REG_IsConversionOngoing) for LL_ADC_REG_IsConversionOngoing
    stm32g0xx_hal_adc.o(i.HAL_ADC_IRQHandler) refers to stm32g0xx_hal_adc.o(i.HAL_ADC_ConvCpltCallback) for HAL_ADC_ConvCpltCallback
    stm32g0xx_hal_adc.o(i.HAL_ADC_IRQHandler) refers to stm32g0xx_hal_adc.o(i.HAL_ADC_LevelOutOfWindowCallback) for HAL_ADC_LevelOutOfWindowCallback
    stm32g0xx_hal_adc.o(i.HAL_ADC_IRQHandler) refers to stm32g0xx_hal_adc_ex.o(i.HAL_ADCEx_LevelOutOfWindow2Callback) for HAL_ADCEx_LevelOutOfWindow2Callback
    stm32g0xx_hal_adc.o(i.HAL_ADC_IRQHandler) refers to stm32g0xx_hal_adc_ex.o(i.HAL_ADCEx_LevelOutOfWindow3Callback) for HAL_ADCEx_LevelOutOfWindow3Callback
    stm32g0xx_hal_adc.o(i.HAL_ADC_IRQHandler) refers to stm32g0xx_hal_adc.o(i.HAL_ADC_ErrorCallback) for HAL_ADC_ErrorCallback
    stm32g0xx_hal_adc.o(i.HAL_ADC_IRQHandler) refers to stm32g0xx_hal_adc_ex.o(i.HAL_ADCEx_ChannelConfigReadyCallback) for HAL_ADCEx_ChannelConfigReadyCallback
    stm32g0xx_hal_adc.o(i.HAL_ADC_Init) refers to adc_1.o(i.HAL_ADC_MspInit) for HAL_ADC_MspInit
    stm32g0xx_hal_adc.o(i.HAL_ADC_Init) refers to stm32g0xx_hal_adc.o(i.LL_ADC_IsInternalRegulatorEnabled) for LL_ADC_IsInternalRegulatorEnabled
    stm32g0xx_hal_adc.o(i.HAL_ADC_Init) refers to uidiv.o(.text) for __aeabi_uidivmod
    stm32g0xx_hal_adc.o(i.HAL_ADC_Init) refers to stm32g0xx_hal_adc.o(i.LL_ADC_REG_IsConversionOngoing) for LL_ADC_REG_IsConversionOngoing
    stm32g0xx_hal_adc.o(i.HAL_ADC_Init) refers to stm32g0xx_hal_adc.o(i.LL_ADC_IsEnabled) for LL_ADC_IsEnabled
    stm32g0xx_hal_adc.o(i.HAL_ADC_Init) refers to stm32g0xx_hal_adc.o(i.LL_ADC_SetSamplingTimeCommonChannels) for LL_ADC_SetSamplingTimeCommonChannels
    stm32g0xx_hal_adc.o(i.HAL_ADC_Init) refers to system_stm32g0xx.o(.data) for SystemCoreClock
    stm32g0xx_hal_adc.o(i.HAL_ADC_PollForConversion) refers to stm32g0xx_hal.o(i.HAL_GetTick) for HAL_GetTick
    stm32g0xx_hal_adc.o(i.HAL_ADC_PollForConversion) refers to stm32g0xx_hal_adc.o(i.LL_ADC_REG_IsTriggerSourceSWStart) for LL_ADC_REG_IsTriggerSourceSWStart
    stm32g0xx_hal_adc.o(i.HAL_ADC_PollForConversion) refers to stm32g0xx_hal_adc.o(i.LL_ADC_REG_IsConversionOngoing) for LL_ADC_REG_IsConversionOngoing
    stm32g0xx_hal_adc.o(i.HAL_ADC_PollForEvent) refers to stm32g0xx_hal.o(i.HAL_GetTick) for HAL_GetTick
    stm32g0xx_hal_adc.o(i.HAL_ADC_Start) refers to stm32g0xx_hal_adc.o(i.LL_ADC_REG_IsConversionOngoing) for LL_ADC_REG_IsConversionOngoing
    stm32g0xx_hal_adc.o(i.HAL_ADC_Start) refers to stm32g0xx_hal_adc.o(i.ADC_Enable) for ADC_Enable
    stm32g0xx_hal_adc.o(i.HAL_ADC_Start) refers to stm32g0xx_hal_adc.o(i.LL_ADC_REG_StartConversion) for LL_ADC_REG_StartConversion
    stm32g0xx_hal_adc.o(i.HAL_ADC_Start_DMA) refers to stm32g0xx_hal_adc.o(i.LL_ADC_REG_IsConversionOngoing) for LL_ADC_REG_IsConversionOngoing
    stm32g0xx_hal_adc.o(i.HAL_ADC_Start_DMA) refers to stm32g0xx_hal_adc.o(i.LL_ADC_IsEnabled) for LL_ADC_IsEnabled
    stm32g0xx_hal_adc.o(i.HAL_ADC_Start_DMA) refers to stm32g0xx_hal_adc.o(i.LL_ADC_Disable) for LL_ADC_Disable
    stm32g0xx_hal_adc.o(i.HAL_ADC_Start_DMA) refers to stm32g0xx_hal_adc.o(i.ADC_Enable) for ADC_Enable
    stm32g0xx_hal_adc.o(i.HAL_ADC_Start_DMA) refers to stm32g0xx_hal_dma.o(i.HAL_DMA_Start_IT) for HAL_DMA_Start_IT
    stm32g0xx_hal_adc.o(i.HAL_ADC_Start_DMA) refers to stm32g0xx_hal_adc.o(i.LL_ADC_REG_StartConversion) for LL_ADC_REG_StartConversion
    stm32g0xx_hal_adc.o(i.HAL_ADC_Start_DMA) refers to stm32g0xx_hal_adc.o(i.ADC_DMAConvCplt) for ADC_DMAConvCplt
    stm32g0xx_hal_adc.o(i.HAL_ADC_Start_DMA) refers to stm32g0xx_hal_adc.o(i.ADC_DMAHalfConvCplt) for ADC_DMAHalfConvCplt
    stm32g0xx_hal_adc.o(i.HAL_ADC_Start_DMA) refers to stm32g0xx_hal_adc.o(i.ADC_DMAError) for ADC_DMAError
    stm32g0xx_hal_adc.o(i.HAL_ADC_Start_IT) refers to stm32g0xx_hal_adc.o(i.LL_ADC_REG_IsConversionOngoing) for LL_ADC_REG_IsConversionOngoing
    stm32g0xx_hal_adc.o(i.HAL_ADC_Start_IT) refers to stm32g0xx_hal_adc.o(i.ADC_Enable) for ADC_Enable
    stm32g0xx_hal_adc.o(i.HAL_ADC_Start_IT) refers to stm32g0xx_hal_adc.o(i.LL_ADC_REG_StartConversion) for LL_ADC_REG_StartConversion
    stm32g0xx_hal_adc.o(i.HAL_ADC_Stop) refers to stm32g0xx_hal_adc.o(i.ADC_ConversionStop) for ADC_ConversionStop
    stm32g0xx_hal_adc.o(i.HAL_ADC_Stop) refers to stm32g0xx_hal_adc.o(i.ADC_Disable) for ADC_Disable
    stm32g0xx_hal_adc.o(i.HAL_ADC_Stop_DMA) refers to stm32g0xx_hal_adc.o(i.ADC_ConversionStop) for ADC_ConversionStop
    stm32g0xx_hal_adc.o(i.HAL_ADC_Stop_DMA) refers to stm32g0xx_hal_dma.o(i.HAL_DMA_Abort) for HAL_DMA_Abort
    stm32g0xx_hal_adc.o(i.HAL_ADC_Stop_DMA) refers to stm32g0xx_hal_adc.o(i.ADC_Disable) for ADC_Disable
    stm32g0xx_hal_adc.o(i.HAL_ADC_Stop_IT) refers to stm32g0xx_hal_adc.o(i.ADC_ConversionStop) for ADC_ConversionStop
    stm32g0xx_hal_adc.o(i.HAL_ADC_Stop_IT) refers to stm32g0xx_hal_adc.o(i.ADC_Disable) for ADC_Disable
    stm32g0xx_hal_adc_ex.o(i.HAL_ADCEx_Calibration_SetValue) refers to stm32g0xx_hal_adc_ex.o(i.LL_ADC_IsEnabled) for LL_ADC_IsEnabled
    stm32g0xx_hal_adc_ex.o(i.HAL_ADCEx_Calibration_Start) refers to stm32g0xx_hal_adc.o(i.ADC_Disable) for ADC_Disable
    stm32g0xx_hal_adc_ex.o(i.HAL_ADCEx_Calibration_Start) refers to stm32g0xx_hal_adc_ex.o(i.LL_ADC_IsEnabled) for LL_ADC_IsEnabled
    stm32g0xx_hal_adc_ex.o(i.HAL_ADCEx_DisableVoltageRegulator) refers to stm32g0xx_hal_adc_ex.o(i.LL_ADC_IsEnabled) for LL_ADC_IsEnabled
    stm32g0xx_hal_rcc.o(i.HAL_RCC_ClockConfig) refers to stm32g0xx_hal.o(i.HAL_GetTick) for HAL_GetTick
    stm32g0xx_hal_rcc.o(i.HAL_RCC_ClockConfig) refers to stm32g0xx_hal_rcc.o(i.HAL_RCC_GetSysClockFreq) for HAL_RCC_GetSysClockFreq
    stm32g0xx_hal_rcc.o(i.HAL_RCC_ClockConfig) refers to stm32g0xx_hal.o(i.HAL_InitTick) for HAL_InitTick
    stm32g0xx_hal_rcc.o(i.HAL_RCC_ClockConfig) refers to system_stm32g0xx.o(.constdata) for AHBPrescTable
    stm32g0xx_hal_rcc.o(i.HAL_RCC_ClockConfig) refers to system_stm32g0xx.o(.data) for SystemCoreClock
    stm32g0xx_hal_rcc.o(i.HAL_RCC_ClockConfig) refers to stm32g0xx_hal.o(.data) for uwTickPrio
    stm32g0xx_hal_rcc.o(i.HAL_RCC_DeInit) refers to stm32g0xx_hal.o(i.HAL_GetTick) for HAL_GetTick
    stm32g0xx_hal_rcc.o(i.HAL_RCC_DeInit) refers to stm32g0xx_hal.o(i.HAL_InitTick) for HAL_InitTick
    stm32g0xx_hal_rcc.o(i.HAL_RCC_DeInit) refers to system_stm32g0xx.o(.data) for SystemCoreClock
    stm32g0xx_hal_rcc.o(i.HAL_RCC_DeInit) refers to stm32g0xx_hal.o(.data) for uwTickPrio
    stm32g0xx_hal_rcc.o(i.HAL_RCC_GetHCLKFreq) refers to system_stm32g0xx.o(.data) for SystemCoreClock
    stm32g0xx_hal_rcc.o(i.HAL_RCC_GetPCLK1Freq) refers to stm32g0xx_hal_rcc.o(i.HAL_RCC_GetHCLKFreq) for HAL_RCC_GetHCLKFreq
    stm32g0xx_hal_rcc.o(i.HAL_RCC_GetPCLK1Freq) refers to system_stm32g0xx.o(.constdata) for APBPrescTable
    stm32g0xx_hal_rcc.o(i.HAL_RCC_GetSysClockFreq) refers to uidiv.o(.text) for __aeabi_uidivmod
    stm32g0xx_hal_rcc.o(i.HAL_RCC_MCOConfig) refers to stm32g0xx_hal_gpio.o(i.HAL_GPIO_Init) for HAL_GPIO_Init
    stm32g0xx_hal_rcc.o(i.HAL_RCC_NMI_IRQHandler) refers to stm32g0xx_hal_rcc.o(i.HAL_RCC_CSSCallback) for HAL_RCC_CSSCallback
    stm32g0xx_hal_rcc.o(i.HAL_RCC_NMI_IRQHandler) refers to stm32g0xx_hal_rcc.o(i.HAL_RCC_LSECSSCallback) for HAL_RCC_LSECSSCallback
    stm32g0xx_hal_rcc.o(i.HAL_RCC_OscConfig) refers to stm32g0xx_hal.o(i.HAL_GetTick) for HAL_GetTick
    stm32g0xx_hal_rcc.o(i.HAL_RCC_OscConfig) refers to uidiv.o(.text) for __aeabi_uidivmod
    stm32g0xx_hal_rcc.o(i.HAL_RCC_OscConfig) refers to stm32g0xx_hal.o(i.HAL_InitTick) for HAL_InitTick
    stm32g0xx_hal_rcc.o(i.HAL_RCC_OscConfig) refers to system_stm32g0xx.o(.data) for SystemCoreClock
    stm32g0xx_hal_rcc.o(i.HAL_RCC_OscConfig) refers to stm32g0xx_hal.o(.data) for uwTickPrio
    stm32g0xx_hal_rcc_ex.o(i.HAL_RCCEx_DisableLSCO) refers to stm32g0xx_hal_pwr.o(i.HAL_PWR_EnableBkUpAccess) for HAL_PWR_EnableBkUpAccess
    stm32g0xx_hal_rcc_ex.o(i.HAL_RCCEx_DisableLSCO) refers to stm32g0xx_hal_pwr.o(i.HAL_PWR_DisableBkUpAccess) for HAL_PWR_DisableBkUpAccess
    stm32g0xx_hal_rcc_ex.o(i.HAL_RCCEx_EnableLSCO) refers to stm32g0xx_hal_gpio.o(i.HAL_GPIO_Init) for HAL_GPIO_Init
    stm32g0xx_hal_rcc_ex.o(i.HAL_RCCEx_EnableLSCO) refers to stm32g0xx_hal_pwr.o(i.HAL_PWR_EnableBkUpAccess) for HAL_PWR_EnableBkUpAccess
    stm32g0xx_hal_rcc_ex.o(i.HAL_RCCEx_EnableLSCO) refers to stm32g0xx_hal_pwr.o(i.HAL_PWR_DisableBkUpAccess) for HAL_PWR_DisableBkUpAccess
    stm32g0xx_hal_rcc_ex.o(i.HAL_RCCEx_GetPeriphCLKFreq) refers to uidiv.o(.text) for __aeabi_uidivmod
    stm32g0xx_hal_rcc_ex.o(i.HAL_RCCEx_GetPeriphCLKFreq) refers to stm32g0xx_hal_rcc.o(i.HAL_RCC_GetPCLK1Freq) for HAL_RCC_GetPCLK1Freq
    stm32g0xx_hal_rcc_ex.o(i.HAL_RCCEx_GetPeriphCLKFreq) refers to stm32g0xx_hal_rcc.o(i.HAL_RCC_GetSysClockFreq) for HAL_RCC_GetSysClockFreq
    stm32g0xx_hal_rcc_ex.o(i.HAL_RCCEx_PeriphCLKConfig) refers to stm32g0xx_hal.o(i.HAL_GetTick) for HAL_GetTick
    stm32g0xx_hal_flash.o(i.FLASH_WaitForLastOperation) refers to stm32g0xx_hal.o(i.HAL_GetTick) for HAL_GetTick
    stm32g0xx_hal_flash.o(i.FLASH_WaitForLastOperation) refers to stm32g0xx_hal_flash.o(.bss) for pFlash
    stm32g0xx_hal_flash.o(i.HAL_FLASH_GetError) refers to stm32g0xx_hal_flash.o(.bss) for pFlash
    stm32g0xx_hal_flash.o(i.HAL_FLASH_IRQHandler) refers to stm32g0xx_hal_flash.o(i.HAL_FLASH_OperationErrorCallback) for HAL_FLASH_OperationErrorCallback
    stm32g0xx_hal_flash.o(i.HAL_FLASH_IRQHandler) refers to stm32g0xx_hal_flash_ex.o(i.FLASH_PageErase) for FLASH_PageErase
    stm32g0xx_hal_flash.o(i.HAL_FLASH_IRQHandler) refers to stm32g0xx_hal_flash.o(i.HAL_FLASH_EndOfOperationCallback) for HAL_FLASH_EndOfOperationCallback
    stm32g0xx_hal_flash.o(i.HAL_FLASH_IRQHandler) refers to stm32g0xx_hal_flash.o(.bss) for pFlash
    stm32g0xx_hal_flash.o(i.HAL_FLASH_Program) refers to stm32g0xx_hal_flash.o(i.FLASH_WaitForLastOperation) for FLASH_WaitForLastOperation
    stm32g0xx_hal_flash.o(i.HAL_FLASH_Program) refers to stm32g0xx_hal_flash.o(i.FLASH_Program_DoubleWord) for FLASH_Program_DoubleWord
    stm32g0xx_hal_flash.o(i.HAL_FLASH_Program) refers to stm32g0xx_hal_flash.o(i.FLASH_Program_Fast) for FLASH_Program_Fast
    stm32g0xx_hal_flash.o(i.HAL_FLASH_Program) refers to stm32g0xx_hal_flash.o(.bss) for pFlash
    stm32g0xx_hal_flash.o(i.HAL_FLASH_Program_IT) refers to stm32g0xx_hal_flash.o(i.FLASH_WaitForLastOperation) for FLASH_WaitForLastOperation
    stm32g0xx_hal_flash.o(i.HAL_FLASH_Program_IT) refers to stm32g0xx_hal_flash.o(i.FLASH_Program_DoubleWord) for FLASH_Program_DoubleWord
    stm32g0xx_hal_flash.o(i.HAL_FLASH_Program_IT) refers to stm32g0xx_hal_flash.o(i.FLASH_Program_Fast) for FLASH_Program_Fast
    stm32g0xx_hal_flash.o(i.HAL_FLASH_Program_IT) refers to stm32g0xx_hal_flash.o(.bss) for pFlash
    stm32g0xx_hal_flash_ex.o(i.HAL_FLASHEx_Erase) refers to stm32g0xx_hal_flash.o(i.FLASH_WaitForLastOperation) for FLASH_WaitForLastOperation
    stm32g0xx_hal_flash_ex.o(i.HAL_FLASHEx_Erase) refers to stm32g0xx_hal_flash_ex.o(i.FLASH_MassErase) for FLASH_MassErase
    stm32g0xx_hal_flash_ex.o(i.HAL_FLASHEx_Erase) refers to stm32g0xx_hal_flash_ex.o(i.FLASH_PageErase) for FLASH_PageErase
    stm32g0xx_hal_flash_ex.o(i.HAL_FLASHEx_Erase) refers to stm32g0xx_hal_flash.o(.bss) for pFlash
    stm32g0xx_hal_flash_ex.o(i.HAL_FLASHEx_Erase_IT) refers to stm32g0xx_hal_flash.o(i.FLASH_WaitForLastOperation) for FLASH_WaitForLastOperation
    stm32g0xx_hal_flash_ex.o(i.HAL_FLASHEx_Erase_IT) refers to stm32g0xx_hal_flash_ex.o(i.FLASH_MassErase) for FLASH_MassErase
    stm32g0xx_hal_flash_ex.o(i.HAL_FLASHEx_Erase_IT) refers to stm32g0xx_hal_flash_ex.o(i.FLASH_PageErase) for FLASH_PageErase
    stm32g0xx_hal_flash_ex.o(i.HAL_FLASHEx_Erase_IT) refers to stm32g0xx_hal_flash.o(.bss) for pFlash
    stm32g0xx_hal_flash_ex.o(i.HAL_FLASHEx_OBGetConfig) refers to stm32g0xx_hal_flash_ex.o(i.FLASH_OB_GetWRP) for FLASH_OB_GetWRP
    stm32g0xx_hal_flash_ex.o(i.HAL_FLASHEx_OBGetConfig) refers to stm32g0xx_hal_flash_ex.o(i.FLASH_OB_GetRDP) for FLASH_OB_GetRDP
    stm32g0xx_hal_flash_ex.o(i.HAL_FLASHEx_OBGetConfig) refers to stm32g0xx_hal_flash_ex.o(i.FLASH_OB_GetUser) for FLASH_OB_GetUser
    stm32g0xx_hal_flash_ex.o(i.HAL_FLASHEx_OBProgram) refers to stm32g0xx_hal_flash_ex.o(i.FLASH_OB_WRPConfig) for FLASH_OB_WRPConfig
    stm32g0xx_hal_flash_ex.o(i.HAL_FLASHEx_OBProgram) refers to stm32g0xx_hal_flash_ex.o(i.FLASH_OB_OptrConfig) for FLASH_OB_OptrConfig
    stm32g0xx_hal_flash_ex.o(i.HAL_FLASHEx_OBProgram) refers to stm32g0xx_hal_flash_ex.o(i.FLASH_OB_GetUser) for FLASH_OB_GetUser
    stm32g0xx_hal_flash_ex.o(i.HAL_FLASHEx_OBProgram) refers to stm32g0xx_hal_flash_ex.o(i.FLASH_OB_GetRDP) for FLASH_OB_GetRDP
    stm32g0xx_hal_flash_ex.o(i.HAL_FLASHEx_OBProgram) refers to stm32g0xx_hal_flash.o(i.FLASH_WaitForLastOperation) for FLASH_WaitForLastOperation
    stm32g0xx_hal_flash_ex.o(i.HAL_FLASHEx_OBProgram) refers to stm32g0xx_hal_flash.o(.bss) for pFlash
    stm32g0xx_hal_dma.o(i.DMA_CalcDMAMUXChannelBaseAndMask) refers to uidiv.o(.text) for __aeabi_uidivmod
    stm32g0xx_hal_dma.o(i.HAL_DMA_DeInit) refers to uidiv.o(.text) for __aeabi_uidivmod
    stm32g0xx_hal_dma.o(i.HAL_DMA_DeInit) refers to stm32g0xx_hal_dma.o(i.DMA_CalcDMAMUXChannelBaseAndMask) for DMA_CalcDMAMUXChannelBaseAndMask
    stm32g0xx_hal_dma.o(i.HAL_DMA_DeInit) refers to stm32g0xx_hal_dma.o(i.DMA_CalcDMAMUXRequestGenBaseAndMask) for DMA_CalcDMAMUXRequestGenBaseAndMask
    stm32g0xx_hal_dma.o(i.HAL_DMA_Init) refers to uidiv.o(.text) for __aeabi_uidivmod
    stm32g0xx_hal_dma.o(i.HAL_DMA_Init) refers to stm32g0xx_hal_dma.o(i.DMA_CalcDMAMUXChannelBaseAndMask) for DMA_CalcDMAMUXChannelBaseAndMask
    stm32g0xx_hal_dma.o(i.HAL_DMA_Init) refers to stm32g0xx_hal_dma.o(i.DMA_CalcDMAMUXRequestGenBaseAndMask) for DMA_CalcDMAMUXRequestGenBaseAndMask
    stm32g0xx_hal_dma.o(i.HAL_DMA_PollForTransfer) refers to stm32g0xx_hal.o(i.HAL_GetTick) for HAL_GetTick
    stm32g0xx_hal_dma.o(i.HAL_DMA_Start) refers to stm32g0xx_hal_dma.o(i.DMA_SetConfig) for DMA_SetConfig
    stm32g0xx_hal_dma.o(i.HAL_DMA_Start_IT) refers to stm32g0xx_hal_dma.o(i.DMA_SetConfig) for DMA_SetConfig
    stm32g0xx_hal_dma.o(i.HAL_DMA_UnRegisterCallback) refers to usart_1.o(i.__ARM_common_switch8) for __ARM_common_switch8
    stm32g0xx_hal_pwr.o(i.HAL_PWR_EnterSLEEPMode) refers to stm32g0xx_hal_pwr_ex.o(i.HAL_PWREx_EnableLowPowerRunMode) for HAL_PWREx_EnableLowPowerRunMode
    stm32g0xx_hal_pwr.o(i.HAL_PWR_EnterSLEEPMode) refers to stm32g0xx_hal_pwr_ex.o(i.HAL_PWREx_DisableLowPowerRunMode) for HAL_PWREx_DisableLowPowerRunMode
    stm32g0xx_hal_pwr_ex.o(i.HAL_PWREx_ControlVoltageScaling) refers to uidiv.o(.text) for __aeabi_uidivmod
    stm32g0xx_hal_pwr_ex.o(i.HAL_PWREx_ControlVoltageScaling) refers to system_stm32g0xx.o(.data) for SystemCoreClock
    stm32g0xx_hal_pwr_ex.o(i.HAL_PWREx_DisableGPIOPullDown) refers to usart_1.o(i.__ARM_common_switch8) for __ARM_common_switch8
    stm32g0xx_hal_pwr_ex.o(i.HAL_PWREx_DisableGPIOPullUp) refers to usart_1.o(i.__ARM_common_switch8) for __ARM_common_switch8
    stm32g0xx_hal_pwr_ex.o(i.HAL_PWREx_DisableLowPowerRunMode) refers to uidiv.o(.text) for __aeabi_uidivmod
    stm32g0xx_hal_pwr_ex.o(i.HAL_PWREx_DisableLowPowerRunMode) refers to system_stm32g0xx.o(.data) for SystemCoreClock
    stm32g0xx_hal_pwr_ex.o(i.HAL_PWREx_EnableGPIOPullDown) refers to usart_1.o(i.__ARM_common_switch8) for __ARM_common_switch8
    stm32g0xx_hal_pwr_ex.o(i.HAL_PWREx_EnableGPIOPullUp) refers to usart_1.o(i.__ARM_common_switch8) for __ARM_common_switch8
    stm32g0xx_hal_cortex.o(i.HAL_NVIC_SetPriority) refers to stm32g0xx_hal_cortex.o(i.__NVIC_SetPriority) for __NVIC_SetPriority
    stm32g0xx_hal_cortex.o(i.HAL_SYSTICK_Config) refers to stm32g0xx_hal_cortex.o(i.__NVIC_SetPriority) for __NVIC_SetPriority
    stm32g0xx_hal_cortex.o(i.HAL_SYSTICK_IRQHandler) refers to stm32g0xx_hal_cortex.o(i.HAL_SYSTICK_Callback) for HAL_SYSTICK_Callback
    stm32g0xx_hal.o(i.HAL_DeInit) refers to stm32g0xx_hal.o(i.HAL_MspDeInit) for HAL_MspDeInit
    stm32g0xx_hal.o(i.HAL_Delay) refers to stm32g0xx_hal.o(i.HAL_GetTick) for HAL_GetTick
    stm32g0xx_hal.o(i.HAL_Delay) refers to stm32g0xx_hal.o(.data) for uwTickFreq
    stm32g0xx_hal.o(i.HAL_GetTick) refers to stm32g0xx_hal.o(.data) for uwTick
    stm32g0xx_hal.o(i.HAL_GetTickFreq) refers to stm32g0xx_hal.o(.data) for uwTickFreq
    stm32g0xx_hal.o(i.HAL_GetTickPrio) refers to stm32g0xx_hal.o(.data) for uwTickPrio
    stm32g0xx_hal.o(i.HAL_IncTick) refers to stm32g0xx_hal.o(.data) for uwTick
    stm32g0xx_hal.o(i.HAL_Init) refers to stm32g0xx_hal.o(i.HAL_InitTick) for HAL_InitTick
    stm32g0xx_hal.o(i.HAL_Init) refers to stm32g0xx_hal_msp.o(i.HAL_MspInit) for HAL_MspInit
    stm32g0xx_hal.o(i.HAL_InitTick) refers to uidiv.o(.text) for __aeabi_uidivmod
    stm32g0xx_hal.o(i.HAL_InitTick) refers to stm32g0xx_hal_cortex.o(i.HAL_SYSTICK_Config) for HAL_SYSTICK_Config
    stm32g0xx_hal.o(i.HAL_InitTick) refers to stm32g0xx_hal_cortex.o(i.HAL_NVIC_SetPriority) for HAL_NVIC_SetPriority
    stm32g0xx_hal.o(i.HAL_InitTick) refers to stm32g0xx_hal.o(.data) for uwTickFreq
    stm32g0xx_hal.o(i.HAL_InitTick) refers to system_stm32g0xx.o(.data) for SystemCoreClock
    stm32g0xx_hal.o(i.HAL_SetTickFreq) refers to stm32g0xx_hal.o(i.HAL_InitTick) for HAL_InitTick
    stm32g0xx_hal.o(i.HAL_SetTickFreq) refers to stm32g0xx_hal.o(.data) for uwTickFreq
    stm32g0xx_hal_tim.o(i.HAL_TIM_Base_DeInit) refers to tim_1.o(i.HAL_TIM_Base_MspDeInit) for HAL_TIM_Base_MspDeInit
    stm32g0xx_hal_tim.o(i.HAL_TIM_Base_Init) refers to tim_1.o(i.HAL_TIM_Base_MspInit) for HAL_TIM_Base_MspInit
    stm32g0xx_hal_tim.o(i.HAL_TIM_Base_Init) refers to stm32g0xx_hal_tim.o(i.TIM_Base_SetConfig) for TIM_Base_SetConfig
    stm32g0xx_hal_tim.o(i.HAL_TIM_Base_Start_DMA) refers to stm32g0xx_hal_dma.o(i.HAL_DMA_Start_IT) for HAL_DMA_Start_IT
    stm32g0xx_hal_tim.o(i.HAL_TIM_Base_Start_DMA) refers to stm32g0xx_hal_tim.o(i.TIM_DMAPeriodElapsedCplt) for TIM_DMAPeriodElapsedCplt
    stm32g0xx_hal_tim.o(i.HAL_TIM_Base_Start_DMA) refers to stm32g0xx_hal_tim.o(i.TIM_DMAPeriodElapsedHalfCplt) for TIM_DMAPeriodElapsedHalfCplt
    stm32g0xx_hal_tim.o(i.HAL_TIM_Base_Start_DMA) refers to stm32g0xx_hal_tim.o(i.TIM_DMAError) for TIM_DMAError
    stm32g0xx_hal_tim.o(i.HAL_TIM_Base_Stop_DMA) refers to stm32g0xx_hal_dma.o(i.HAL_DMA_Abort_IT) for HAL_DMA_Abort_IT
    stm32g0xx_hal_tim.o(i.HAL_TIM_ConfigClockSource) refers to stm32g0xx_hal_tim.o(i.TIM_ETR_SetConfig) for TIM_ETR_SetConfig
    stm32g0xx_hal_tim.o(i.HAL_TIM_ConfigClockSource) refers to stm32g0xx_hal_tim.o(i.TIM_TI1_ConfigInputStage) for TIM_TI1_ConfigInputStage
    stm32g0xx_hal_tim.o(i.HAL_TIM_ConfigClockSource) refers to stm32g0xx_hal_tim.o(i.TIM_ITRx_SetConfig) for TIM_ITRx_SetConfig
    stm32g0xx_hal_tim.o(i.HAL_TIM_ConfigClockSource) refers to stm32g0xx_hal_tim.o(i.TIM_TI2_ConfigInputStage) for TIM_TI2_ConfigInputStage
    stm32g0xx_hal_tim.o(i.HAL_TIM_ConfigOCrefClear) refers to stm32g0xx_hal_tim.o(i.TIM_ETR_SetConfig) for TIM_ETR_SetConfig
    stm32g0xx_hal_tim.o(i.HAL_TIM_DMABurst_ReadStart) refers to stm32g0xx_hal_dma.o(i.HAL_DMA_Start_IT) for HAL_DMA_Start_IT
    stm32g0xx_hal_tim.o(i.HAL_TIM_DMABurst_ReadStart) refers to stm32g0xx_hal_tim.o(i.TIM_DMAPeriodElapsedCplt) for TIM_DMAPeriodElapsedCplt
    stm32g0xx_hal_tim.o(i.HAL_TIM_DMABurst_ReadStart) refers to stm32g0xx_hal_tim.o(i.TIM_DMAPeriodElapsedHalfCplt) for TIM_DMAPeriodElapsedHalfCplt
    stm32g0xx_hal_tim.o(i.HAL_TIM_DMABurst_ReadStart) refers to stm32g0xx_hal_tim.o(i.TIM_DMAError) for TIM_DMAError
    stm32g0xx_hal_tim.o(i.HAL_TIM_DMABurst_ReadStart) refers to stm32g0xx_hal_tim.o(i.TIM_DMACaptureCplt) for TIM_DMACaptureCplt
    stm32g0xx_hal_tim.o(i.HAL_TIM_DMABurst_ReadStart) refers to stm32g0xx_hal_tim.o(i.TIM_DMACaptureHalfCplt) for TIM_DMACaptureHalfCplt
    stm32g0xx_hal_tim.o(i.HAL_TIM_DMABurst_ReadStart) refers to stm32g0xx_hal_tim_ex.o(i.TIMEx_DMACommutationCplt) for TIMEx_DMACommutationCplt
    stm32g0xx_hal_tim.o(i.HAL_TIM_DMABurst_ReadStart) refers to stm32g0xx_hal_tim_ex.o(i.TIMEx_DMACommutationHalfCplt) for TIMEx_DMACommutationHalfCplt
    stm32g0xx_hal_tim.o(i.HAL_TIM_DMABurst_ReadStart) refers to stm32g0xx_hal_tim.o(i.TIM_DMATriggerCplt) for TIM_DMATriggerCplt
    stm32g0xx_hal_tim.o(i.HAL_TIM_DMABurst_ReadStart) refers to stm32g0xx_hal_tim.o(i.TIM_DMATriggerHalfCplt) for TIM_DMATriggerHalfCplt
    stm32g0xx_hal_tim.o(i.HAL_TIM_DMABurst_ReadStop) refers to stm32g0xx_hal_dma.o(i.HAL_DMA_Abort_IT) for HAL_DMA_Abort_IT
    stm32g0xx_hal_tim.o(i.HAL_TIM_DMABurst_WriteStart) refers to stm32g0xx_hal_dma.o(i.HAL_DMA_Start_IT) for HAL_DMA_Start_IT
    stm32g0xx_hal_tim.o(i.HAL_TIM_DMABurst_WriteStart) refers to stm32g0xx_hal_tim.o(i.TIM_DMAPeriodElapsedCplt) for TIM_DMAPeriodElapsedCplt
    stm32g0xx_hal_tim.o(i.HAL_TIM_DMABurst_WriteStart) refers to stm32g0xx_hal_tim.o(i.TIM_DMAPeriodElapsedHalfCplt) for TIM_DMAPeriodElapsedHalfCplt
    stm32g0xx_hal_tim.o(i.HAL_TIM_DMABurst_WriteStart) refers to stm32g0xx_hal_tim.o(i.TIM_DMAError) for TIM_DMAError
    stm32g0xx_hal_tim.o(i.HAL_TIM_DMABurst_WriteStart) refers to stm32g0xx_hal_tim.o(i.TIM_DMADelayPulseCplt) for TIM_DMADelayPulseCplt
    stm32g0xx_hal_tim.o(i.HAL_TIM_DMABurst_WriteStart) refers to stm32g0xx_hal_tim.o(i.TIM_DMADelayPulseHalfCplt) for TIM_DMADelayPulseHalfCplt
    stm32g0xx_hal_tim.o(i.HAL_TIM_DMABurst_WriteStart) refers to stm32g0xx_hal_tim_ex.o(i.TIMEx_DMACommutationCplt) for TIMEx_DMACommutationCplt
    stm32g0xx_hal_tim.o(i.HAL_TIM_DMABurst_WriteStart) refers to stm32g0xx_hal_tim_ex.o(i.TIMEx_DMACommutationHalfCplt) for TIMEx_DMACommutationHalfCplt
    stm32g0xx_hal_tim.o(i.HAL_TIM_DMABurst_WriteStart) refers to stm32g0xx_hal_tim.o(i.TIM_DMATriggerCplt) for TIM_DMATriggerCplt
    stm32g0xx_hal_tim.o(i.HAL_TIM_DMABurst_WriteStart) refers to stm32g0xx_hal_tim.o(i.TIM_DMATriggerHalfCplt) for TIM_DMATriggerHalfCplt
    stm32g0xx_hal_tim.o(i.HAL_TIM_DMABurst_WriteStop) refers to stm32g0xx_hal_dma.o(i.HAL_DMA_Abort_IT) for HAL_DMA_Abort_IT
    stm32g0xx_hal_tim.o(i.HAL_TIM_Encoder_DeInit) refers to stm32g0xx_hal_tim.o(i.HAL_TIM_Encoder_MspDeInit) for HAL_TIM_Encoder_MspDeInit
    stm32g0xx_hal_tim.o(i.HAL_TIM_Encoder_Init) refers to stm32g0xx_hal_tim.o(i.HAL_TIM_Encoder_MspInit) for HAL_TIM_Encoder_MspInit
    stm32g0xx_hal_tim.o(i.HAL_TIM_Encoder_Init) refers to stm32g0xx_hal_tim.o(i.TIM_Base_SetConfig) for TIM_Base_SetConfig
    stm32g0xx_hal_tim.o(i.HAL_TIM_Encoder_Start) refers to stm32g0xx_hal_tim.o(i.TIM_CCxChannelCmd) for TIM_CCxChannelCmd
    stm32g0xx_hal_tim.o(i.HAL_TIM_Encoder_Start_DMA) refers to stm32g0xx_hal_dma.o(i.HAL_DMA_Start_IT) for HAL_DMA_Start_IT
    stm32g0xx_hal_tim.o(i.HAL_TIM_Encoder_Start_DMA) refers to stm32g0xx_hal_tim.o(i.TIM_CCxChannelCmd) for TIM_CCxChannelCmd
    stm32g0xx_hal_tim.o(i.HAL_TIM_Encoder_Start_DMA) refers to stm32g0xx_hal_tim.o(i.TIM_DMACaptureCplt) for TIM_DMACaptureCplt
    stm32g0xx_hal_tim.o(i.HAL_TIM_Encoder_Start_DMA) refers to stm32g0xx_hal_tim.o(i.TIM_DMACaptureHalfCplt) for TIM_DMACaptureHalfCplt
    stm32g0xx_hal_tim.o(i.HAL_TIM_Encoder_Start_DMA) refers to stm32g0xx_hal_tim.o(i.TIM_DMAError) for TIM_DMAError
    stm32g0xx_hal_tim.o(i.HAL_TIM_Encoder_Start_IT) refers to stm32g0xx_hal_tim.o(i.TIM_CCxChannelCmd) for TIM_CCxChannelCmd
    stm32g0xx_hal_tim.o(i.HAL_TIM_Encoder_Stop) refers to stm32g0xx_hal_tim.o(i.TIM_CCxChannelCmd) for TIM_CCxChannelCmd
    stm32g0xx_hal_tim.o(i.HAL_TIM_Encoder_Stop_DMA) refers to stm32g0xx_hal_tim.o(i.TIM_CCxChannelCmd) for TIM_CCxChannelCmd
    stm32g0xx_hal_tim.o(i.HAL_TIM_Encoder_Stop_DMA) refers to stm32g0xx_hal_dma.o(i.HAL_DMA_Abort_IT) for HAL_DMA_Abort_IT
    stm32g0xx_hal_tim.o(i.HAL_TIM_Encoder_Stop_IT) refers to stm32g0xx_hal_tim.o(i.TIM_CCxChannelCmd) for TIM_CCxChannelCmd
    stm32g0xx_hal_tim.o(i.HAL_TIM_IC_ConfigChannel) refers to stm32g0xx_hal_tim.o(i.TIM_TI1_SetConfig) for TIM_TI1_SetConfig
    stm32g0xx_hal_tim.o(i.HAL_TIM_IC_ConfigChannel) refers to stm32g0xx_hal_tim.o(i.TIM_TI2_SetConfig) for TIM_TI2_SetConfig
    stm32g0xx_hal_tim.o(i.HAL_TIM_IC_ConfigChannel) refers to stm32g0xx_hal_tim.o(i.TIM_TI3_SetConfig) for TIM_TI3_SetConfig
    stm32g0xx_hal_tim.o(i.HAL_TIM_IC_ConfigChannel) refers to stm32g0xx_hal_tim.o(i.TIM_TI4_SetConfig) for TIM_TI4_SetConfig
    stm32g0xx_hal_tim.o(i.HAL_TIM_IC_DeInit) refers to stm32g0xx_hal_tim.o(i.HAL_TIM_IC_MspDeInit) for HAL_TIM_IC_MspDeInit
    stm32g0xx_hal_tim.o(i.HAL_TIM_IC_Init) refers to stm32g0xx_hal_tim.o(i.HAL_TIM_IC_MspInit) for HAL_TIM_IC_MspInit
    stm32g0xx_hal_tim.o(i.HAL_TIM_IC_Init) refers to stm32g0xx_hal_tim.o(i.TIM_Base_SetConfig) for TIM_Base_SetConfig
    stm32g0xx_hal_tim.o(i.HAL_TIM_IC_Start) refers to stm32g0xx_hal_tim.o(i.TIM_CCxChannelCmd) for TIM_CCxChannelCmd
    stm32g0xx_hal_tim.o(i.HAL_TIM_IC_Start_DMA) refers to stm32g0xx_hal_dma.o(i.HAL_DMA_Start_IT) for HAL_DMA_Start_IT
    stm32g0xx_hal_tim.o(i.HAL_TIM_IC_Start_DMA) refers to stm32g0xx_hal_tim.o(i.TIM_CCxChannelCmd) for TIM_CCxChannelCmd
    stm32g0xx_hal_tim.o(i.HAL_TIM_IC_Start_DMA) refers to stm32g0xx_hal_tim.o(i.TIM_DMACaptureCplt) for TIM_DMACaptureCplt
    stm32g0xx_hal_tim.o(i.HAL_TIM_IC_Start_DMA) refers to stm32g0xx_hal_tim.o(i.TIM_DMACaptureHalfCplt) for TIM_DMACaptureHalfCplt
    stm32g0xx_hal_tim.o(i.HAL_TIM_IC_Start_DMA) refers to stm32g0xx_hal_tim.o(i.TIM_DMAError) for TIM_DMAError
    stm32g0xx_hal_tim.o(i.HAL_TIM_IC_Start_IT) refers to stm32g0xx_hal_tim.o(i.TIM_CCxChannelCmd) for TIM_CCxChannelCmd
    stm32g0xx_hal_tim.o(i.HAL_TIM_IC_Stop) refers to stm32g0xx_hal_tim.o(i.TIM_CCxChannelCmd) for TIM_CCxChannelCmd
    stm32g0xx_hal_tim.o(i.HAL_TIM_IC_Stop_DMA) refers to stm32g0xx_hal_dma.o(i.HAL_DMA_Abort_IT) for HAL_DMA_Abort_IT
    stm32g0xx_hal_tim.o(i.HAL_TIM_IC_Stop_DMA) refers to stm32g0xx_hal_tim.o(i.TIM_CCxChannelCmd) for TIM_CCxChannelCmd
    stm32g0xx_hal_tim.o(i.HAL_TIM_IC_Stop_IT) refers to stm32g0xx_hal_tim.o(i.TIM_CCxChannelCmd) for TIM_CCxChannelCmd
    stm32g0xx_hal_tim.o(i.HAL_TIM_IRQHandler) refers to stm32g0xx_hal_tim.o(i.HAL_TIM_IC_CaptureCallback) for HAL_TIM_IC_CaptureCallback
    stm32g0xx_hal_tim.o(i.HAL_TIM_IRQHandler) refers to stm32g0xx_hal_tim.o(i.HAL_TIM_OC_DelayElapsedCallback) for HAL_TIM_OC_DelayElapsedCallback
    stm32g0xx_hal_tim.o(i.HAL_TIM_IRQHandler) refers to stm32g0xx_hal_tim.o(i.HAL_TIM_PWM_PulseFinishedCallback) for HAL_TIM_PWM_PulseFinishedCallback
    stm32g0xx_hal_tim.o(i.HAL_TIM_IRQHandler) refers to tim_1.o(i.HAL_TIM_PeriodElapsedCallback) for HAL_TIM_PeriodElapsedCallback
    stm32g0xx_hal_tim.o(i.HAL_TIM_IRQHandler) refers to stm32g0xx_hal_tim_ex.o(i.HAL_TIMEx_BreakCallback) for HAL_TIMEx_BreakCallback
    stm32g0xx_hal_tim.o(i.HAL_TIM_IRQHandler) refers to stm32g0xx_hal_tim_ex.o(i.HAL_TIMEx_Break2Callback) for HAL_TIMEx_Break2Callback
    stm32g0xx_hal_tim.o(i.HAL_TIM_IRQHandler) refers to stm32g0xx_hal_tim.o(i.HAL_TIM_TriggerCallback) for HAL_TIM_TriggerCallback
    stm32g0xx_hal_tim.o(i.HAL_TIM_IRQHandler) refers to stm32g0xx_hal_tim_ex.o(i.HAL_TIMEx_CommutCallback) for HAL_TIMEx_CommutCallback
    stm32g0xx_hal_tim.o(i.HAL_TIM_OC_ConfigChannel) refers to stm32g0xx_hal_tim.o(i.TIM_OC1_SetConfig) for TIM_OC1_SetConfig
    stm32g0xx_hal_tim.o(i.HAL_TIM_OC_ConfigChannel) refers to stm32g0xx_hal_tim.o(i.TIM_OC2_SetConfig) for TIM_OC2_SetConfig
    stm32g0xx_hal_tim.o(i.HAL_TIM_OC_ConfigChannel) refers to stm32g0xx_hal_tim.o(i.TIM_OC3_SetConfig) for TIM_OC3_SetConfig
    stm32g0xx_hal_tim.o(i.HAL_TIM_OC_ConfigChannel) refers to stm32g0xx_hal_tim.o(i.TIM_OC4_SetConfig) for TIM_OC4_SetConfig
    stm32g0xx_hal_tim.o(i.HAL_TIM_OC_ConfigChannel) refers to stm32g0xx_hal_tim.o(i.TIM_OC5_SetConfig) for TIM_OC5_SetConfig
    stm32g0xx_hal_tim.o(i.HAL_TIM_OC_ConfigChannel) refers to stm32g0xx_hal_tim.o(i.TIM_OC6_SetConfig) for TIM_OC6_SetConfig
    stm32g0xx_hal_tim.o(i.HAL_TIM_OC_DeInit) refers to stm32g0xx_hal_tim.o(i.HAL_TIM_OC_MspDeInit) for HAL_TIM_OC_MspDeInit
    stm32g0xx_hal_tim.o(i.HAL_TIM_OC_Init) refers to stm32g0xx_hal_tim.o(i.HAL_TIM_OC_MspInit) for HAL_TIM_OC_MspInit
    stm32g0xx_hal_tim.o(i.HAL_TIM_OC_Init) refers to stm32g0xx_hal_tim.o(i.TIM_Base_SetConfig) for TIM_Base_SetConfig
    stm32g0xx_hal_tim.o(i.HAL_TIM_OC_Start) refers to stm32g0xx_hal_tim.o(i.TIM_CCxChannelCmd) for TIM_CCxChannelCmd
    stm32g0xx_hal_tim.o(i.HAL_TIM_OC_Start_DMA) refers to stm32g0xx_hal_dma.o(i.HAL_DMA_Start_IT) for HAL_DMA_Start_IT
    stm32g0xx_hal_tim.o(i.HAL_TIM_OC_Start_DMA) refers to stm32g0xx_hal_tim.o(i.TIM_CCxChannelCmd) for TIM_CCxChannelCmd
    stm32g0xx_hal_tim.o(i.HAL_TIM_OC_Start_DMA) refers to stm32g0xx_hal_tim.o(i.TIM_DMADelayPulseCplt) for TIM_DMADelayPulseCplt
    stm32g0xx_hal_tim.o(i.HAL_TIM_OC_Start_DMA) refers to stm32g0xx_hal_tim.o(i.TIM_DMADelayPulseHalfCplt) for TIM_DMADelayPulseHalfCplt
    stm32g0xx_hal_tim.o(i.HAL_TIM_OC_Start_DMA) refers to stm32g0xx_hal_tim.o(i.TIM_DMAError) for TIM_DMAError
    stm32g0xx_hal_tim.o(i.HAL_TIM_OC_Start_IT) refers to stm32g0xx_hal_tim.o(i.TIM_CCxChannelCmd) for TIM_CCxChannelCmd
    stm32g0xx_hal_tim.o(i.HAL_TIM_OC_Stop) refers to stm32g0xx_hal_tim.o(i.TIM_CCxChannelCmd) for TIM_CCxChannelCmd
    stm32g0xx_hal_tim.o(i.HAL_TIM_OC_Stop_DMA) refers to stm32g0xx_hal_dma.o(i.HAL_DMA_Abort_IT) for HAL_DMA_Abort_IT
    stm32g0xx_hal_tim.o(i.HAL_TIM_OC_Stop_DMA) refers to stm32g0xx_hal_tim.o(i.TIM_CCxChannelCmd) for TIM_CCxChannelCmd
    stm32g0xx_hal_tim.o(i.HAL_TIM_OC_Stop_IT) refers to stm32g0xx_hal_tim.o(i.TIM_CCxChannelCmd) for TIM_CCxChannelCmd
    stm32g0xx_hal_tim.o(i.HAL_TIM_OnePulse_ConfigChannel) refers to stm32g0xx_hal_tim.o(i.TIM_OC1_SetConfig) for TIM_OC1_SetConfig
    stm32g0xx_hal_tim.o(i.HAL_TIM_OnePulse_ConfigChannel) refers to stm32g0xx_hal_tim.o(i.TIM_OC2_SetConfig) for TIM_OC2_SetConfig
    stm32g0xx_hal_tim.o(i.HAL_TIM_OnePulse_ConfigChannel) refers to stm32g0xx_hal_tim.o(i.TIM_TI1_SetConfig) for TIM_TI1_SetConfig
    stm32g0xx_hal_tim.o(i.HAL_TIM_OnePulse_ConfigChannel) refers to stm32g0xx_hal_tim.o(i.TIM_TI2_SetConfig) for TIM_TI2_SetConfig
    stm32g0xx_hal_tim.o(i.HAL_TIM_OnePulse_DeInit) refers to stm32g0xx_hal_tim.o(i.HAL_TIM_OnePulse_MspDeInit) for HAL_TIM_OnePulse_MspDeInit
    stm32g0xx_hal_tim.o(i.HAL_TIM_OnePulse_Init) refers to stm32g0xx_hal_tim.o(i.HAL_TIM_OnePulse_MspInit) for HAL_TIM_OnePulse_MspInit
    stm32g0xx_hal_tim.o(i.HAL_TIM_OnePulse_Init) refers to stm32g0xx_hal_tim.o(i.TIM_Base_SetConfig) for TIM_Base_SetConfig
    stm32g0xx_hal_tim.o(i.HAL_TIM_OnePulse_Start) refers to stm32g0xx_hal_tim.o(i.TIM_CCxChannelCmd) for TIM_CCxChannelCmd
    stm32g0xx_hal_tim.o(i.HAL_TIM_OnePulse_Start_IT) refers to stm32g0xx_hal_tim.o(i.TIM_CCxChannelCmd) for TIM_CCxChannelCmd
    stm32g0xx_hal_tim.o(i.HAL_TIM_OnePulse_Stop) refers to stm32g0xx_hal_tim.o(i.TIM_CCxChannelCmd) for TIM_CCxChannelCmd
    stm32g0xx_hal_tim.o(i.HAL_TIM_OnePulse_Stop_IT) refers to stm32g0xx_hal_tim.o(i.TIM_CCxChannelCmd) for TIM_CCxChannelCmd
    stm32g0xx_hal_tim.o(i.HAL_TIM_PWM_ConfigChannel) refers to stm32g0xx_hal_tim.o(i.TIM_OC1_SetConfig) for TIM_OC1_SetConfig
    stm32g0xx_hal_tim.o(i.HAL_TIM_PWM_ConfigChannel) refers to stm32g0xx_hal_tim.o(i.TIM_OC2_SetConfig) for TIM_OC2_SetConfig
    stm32g0xx_hal_tim.o(i.HAL_TIM_PWM_ConfigChannel) refers to stm32g0xx_hal_tim.o(i.TIM_OC3_SetConfig) for TIM_OC3_SetConfig
    stm32g0xx_hal_tim.o(i.HAL_TIM_PWM_ConfigChannel) refers to stm32g0xx_hal_tim.o(i.TIM_OC4_SetConfig) for TIM_OC4_SetConfig
    stm32g0xx_hal_tim.o(i.HAL_TIM_PWM_ConfigChannel) refers to stm32g0xx_hal_tim.o(i.TIM_OC5_SetConfig) for TIM_OC5_SetConfig
    stm32g0xx_hal_tim.o(i.HAL_TIM_PWM_ConfigChannel) refers to stm32g0xx_hal_tim.o(i.TIM_OC6_SetConfig) for TIM_OC6_SetConfig
    stm32g0xx_hal_tim.o(i.HAL_TIM_PWM_DeInit) refers to stm32g0xx_hal_tim.o(i.HAL_TIM_PWM_MspDeInit) for HAL_TIM_PWM_MspDeInit
    stm32g0xx_hal_tim.o(i.HAL_TIM_PWM_Init) refers to stm32g0xx_hal_tim.o(i.HAL_TIM_PWM_MspInit) for HAL_TIM_PWM_MspInit
    stm32g0xx_hal_tim.o(i.HAL_TIM_PWM_Init) refers to stm32g0xx_hal_tim.o(i.TIM_Base_SetConfig) for TIM_Base_SetConfig
    stm32g0xx_hal_tim.o(i.HAL_TIM_PWM_Start) refers to stm32g0xx_hal_tim.o(i.TIM_CCxChannelCmd) for TIM_CCxChannelCmd
    stm32g0xx_hal_tim.o(i.HAL_TIM_PWM_Start_DMA) refers to stm32g0xx_hal_dma.o(i.HAL_DMA_Start_IT) for HAL_DMA_Start_IT
    stm32g0xx_hal_tim.o(i.HAL_TIM_PWM_Start_DMA) refers to stm32g0xx_hal_tim.o(i.TIM_CCxChannelCmd) for TIM_CCxChannelCmd
    stm32g0xx_hal_tim.o(i.HAL_TIM_PWM_Start_DMA) refers to stm32g0xx_hal_tim.o(i.TIM_DMADelayPulseCplt) for TIM_DMADelayPulseCplt
    stm32g0xx_hal_tim.o(i.HAL_TIM_PWM_Start_DMA) refers to stm32g0xx_hal_tim.o(i.TIM_DMADelayPulseHalfCplt) for TIM_DMADelayPulseHalfCplt
    stm32g0xx_hal_tim.o(i.HAL_TIM_PWM_Start_DMA) refers to stm32g0xx_hal_tim.o(i.TIM_DMAError) for TIM_DMAError
    stm32g0xx_hal_tim.o(i.HAL_TIM_PWM_Start_IT) refers to stm32g0xx_hal_tim.o(i.TIM_CCxChannelCmd) for TIM_CCxChannelCmd
    stm32g0xx_hal_tim.o(i.HAL_TIM_PWM_Stop) refers to stm32g0xx_hal_tim.o(i.TIM_CCxChannelCmd) for TIM_CCxChannelCmd
    stm32g0xx_hal_tim.o(i.HAL_TIM_PWM_Stop_DMA) refers to stm32g0xx_hal_dma.o(i.HAL_DMA_Abort_IT) for HAL_DMA_Abort_IT
    stm32g0xx_hal_tim.o(i.HAL_TIM_PWM_Stop_DMA) refers to stm32g0xx_hal_tim.o(i.TIM_CCxChannelCmd) for TIM_CCxChannelCmd
    stm32g0xx_hal_tim.o(i.HAL_TIM_PWM_Stop_IT) refers to stm32g0xx_hal_tim.o(i.TIM_CCxChannelCmd) for TIM_CCxChannelCmd
    stm32g0xx_hal_tim.o(i.HAL_TIM_SlaveConfigSynchro) refers to stm32g0xx_hal_tim.o(i.TIM_SlaveTimer_SetConfig) for TIM_SlaveTimer_SetConfig
    stm32g0xx_hal_tim.o(i.HAL_TIM_SlaveConfigSynchro_IT) refers to stm32g0xx_hal_tim.o(i.TIM_SlaveTimer_SetConfig) for TIM_SlaveTimer_SetConfig
    stm32g0xx_hal_tim.o(i.TIM_DMACaptureCplt) refers to stm32g0xx_hal_tim.o(i.HAL_TIM_IC_CaptureCallback) for HAL_TIM_IC_CaptureCallback
    stm32g0xx_hal_tim.o(i.TIM_DMACaptureHalfCplt) refers to stm32g0xx_hal_tim.o(i.HAL_TIM_IC_CaptureHalfCpltCallback) for HAL_TIM_IC_CaptureHalfCpltCallback
    stm32g0xx_hal_tim.o(i.TIM_DMADelayPulseCplt) refers to stm32g0xx_hal_tim.o(i.HAL_TIM_PWM_PulseFinishedCallback) for HAL_TIM_PWM_PulseFinishedCallback
    stm32g0xx_hal_tim.o(i.TIM_DMADelayPulseHalfCplt) refers to stm32g0xx_hal_tim.o(i.HAL_TIM_PWM_PulseFinishedHalfCpltCallback) for HAL_TIM_PWM_PulseFinishedHalfCpltCallback
    stm32g0xx_hal_tim.o(i.TIM_DMAError) refers to stm32g0xx_hal_tim.o(i.HAL_TIM_ErrorCallback) for HAL_TIM_ErrorCallback
    stm32g0xx_hal_tim.o(i.TIM_DMAPeriodElapsedCplt) refers to tim_1.o(i.HAL_TIM_PeriodElapsedCallback) for HAL_TIM_PeriodElapsedCallback
    stm32g0xx_hal_tim.o(i.TIM_DMAPeriodElapsedHalfCplt) refers to stm32g0xx_hal_tim.o(i.HAL_TIM_PeriodElapsedHalfCpltCallback) for HAL_TIM_PeriodElapsedHalfCpltCallback
    stm32g0xx_hal_tim.o(i.TIM_DMATriggerCplt) refers to stm32g0xx_hal_tim.o(i.HAL_TIM_TriggerCallback) for HAL_TIM_TriggerCallback
    stm32g0xx_hal_tim.o(i.TIM_DMATriggerHalfCplt) refers to stm32g0xx_hal_tim.o(i.HAL_TIM_TriggerHalfCpltCallback) for HAL_TIM_TriggerHalfCpltCallback
    stm32g0xx_hal_tim.o(i.TIM_SlaveTimer_SetConfig) refers to usart_1.o(i.__ARM_common_switch8) for __ARM_common_switch8
    stm32g0xx_hal_tim.o(i.TIM_SlaveTimer_SetConfig) refers to stm32g0xx_hal_tim.o(i.TIM_ETR_SetConfig) for TIM_ETR_SetConfig
    stm32g0xx_hal_tim.o(i.TIM_SlaveTimer_SetConfig) refers to stm32g0xx_hal_tim.o(i.TIM_TI1_ConfigInputStage) for TIM_TI1_ConfigInputStage
    stm32g0xx_hal_tim.o(i.TIM_SlaveTimer_SetConfig) refers to stm32g0xx_hal_tim.o(i.TIM_TI2_ConfigInputStage) for TIM_TI2_ConfigInputStage
    stm32g0xx_hal_tim_ex.o(i.HAL_TIMEx_ConfigCommutEvent_DMA) refers to stm32g0xx_hal_tim_ex.o(i.TIMEx_DMACommutationCplt) for TIMEx_DMACommutationCplt
    stm32g0xx_hal_tim_ex.o(i.HAL_TIMEx_ConfigCommutEvent_DMA) refers to stm32g0xx_hal_tim_ex.o(i.TIMEx_DMACommutationHalfCplt) for TIMEx_DMACommutationHalfCplt
    stm32g0xx_hal_tim_ex.o(i.HAL_TIMEx_ConfigCommutEvent_DMA) refers to stm32g0xx_hal_tim.o(i.TIM_DMAError) for TIM_DMAError
    stm32g0xx_hal_tim_ex.o(i.HAL_TIMEx_HallSensor_DeInit) refers to stm32g0xx_hal_tim_ex.o(i.HAL_TIMEx_HallSensor_MspDeInit) for HAL_TIMEx_HallSensor_MspDeInit
    stm32g0xx_hal_tim_ex.o(i.HAL_TIMEx_HallSensor_Init) refers to stm32g0xx_hal_tim_ex.o(i.HAL_TIMEx_HallSensor_MspInit) for HAL_TIMEx_HallSensor_MspInit
    stm32g0xx_hal_tim_ex.o(i.HAL_TIMEx_HallSensor_Init) refers to stm32g0xx_hal_tim.o(i.TIM_Base_SetConfig) for TIM_Base_SetConfig
    stm32g0xx_hal_tim_ex.o(i.HAL_TIMEx_HallSensor_Init) refers to stm32g0xx_hal_tim.o(i.TIM_TI1_SetConfig) for TIM_TI1_SetConfig
    stm32g0xx_hal_tim_ex.o(i.HAL_TIMEx_HallSensor_Init) refers to stm32g0xx_hal_tim.o(i.TIM_OC2_SetConfig) for TIM_OC2_SetConfig
    stm32g0xx_hal_tim_ex.o(i.HAL_TIMEx_HallSensor_Start) refers to stm32g0xx_hal_tim.o(i.TIM_CCxChannelCmd) for TIM_CCxChannelCmd
    stm32g0xx_hal_tim_ex.o(i.HAL_TIMEx_HallSensor_Start_DMA) refers to stm32g0xx_hal_tim.o(i.TIM_CCxChannelCmd) for TIM_CCxChannelCmd
    stm32g0xx_hal_tim_ex.o(i.HAL_TIMEx_HallSensor_Start_DMA) refers to stm32g0xx_hal_dma.o(i.HAL_DMA_Start_IT) for HAL_DMA_Start_IT
    stm32g0xx_hal_tim_ex.o(i.HAL_TIMEx_HallSensor_Start_DMA) refers to stm32g0xx_hal_tim.o(i.TIM_DMACaptureCplt) for TIM_DMACaptureCplt
    stm32g0xx_hal_tim_ex.o(i.HAL_TIMEx_HallSensor_Start_DMA) refers to stm32g0xx_hal_tim.o(i.TIM_DMACaptureHalfCplt) for TIM_DMACaptureHalfCplt
    stm32g0xx_hal_tim_ex.o(i.HAL_TIMEx_HallSensor_Start_DMA) refers to stm32g0xx_hal_tim.o(i.TIM_DMAError) for TIM_DMAError
    stm32g0xx_hal_tim_ex.o(i.HAL_TIMEx_HallSensor_Start_IT) refers to stm32g0xx_hal_tim.o(i.TIM_CCxChannelCmd) for TIM_CCxChannelCmd
    stm32g0xx_hal_tim_ex.o(i.HAL_TIMEx_HallSensor_Stop) refers to stm32g0xx_hal_tim.o(i.TIM_CCxChannelCmd) for TIM_CCxChannelCmd
    stm32g0xx_hal_tim_ex.o(i.HAL_TIMEx_HallSensor_Stop_DMA) refers to stm32g0xx_hal_tim.o(i.TIM_CCxChannelCmd) for TIM_CCxChannelCmd
    stm32g0xx_hal_tim_ex.o(i.HAL_TIMEx_HallSensor_Stop_DMA) refers to stm32g0xx_hal_dma.o(i.HAL_DMA_Abort_IT) for HAL_DMA_Abort_IT
    stm32g0xx_hal_tim_ex.o(i.HAL_TIMEx_HallSensor_Stop_IT) refers to stm32g0xx_hal_tim.o(i.TIM_CCxChannelCmd) for TIM_CCxChannelCmd
    stm32g0xx_hal_tim_ex.o(i.HAL_TIMEx_OCN_Start) refers to stm32g0xx_hal_tim_ex.o(i.TIM_CCxNChannelCmd) for TIM_CCxNChannelCmd
    stm32g0xx_hal_tim_ex.o(i.HAL_TIMEx_OCN_Start_DMA) refers to stm32g0xx_hal_dma.o(i.HAL_DMA_Start_IT) for HAL_DMA_Start_IT
    stm32g0xx_hal_tim_ex.o(i.HAL_TIMEx_OCN_Start_DMA) refers to stm32g0xx_hal_tim_ex.o(i.TIM_CCxNChannelCmd) for TIM_CCxNChannelCmd
    stm32g0xx_hal_tim_ex.o(i.HAL_TIMEx_OCN_Start_DMA) refers to stm32g0xx_hal_tim.o(i.TIM_DMADelayPulseCplt) for TIM_DMADelayPulseCplt
    stm32g0xx_hal_tim_ex.o(i.HAL_TIMEx_OCN_Start_DMA) refers to stm32g0xx_hal_tim.o(i.TIM_DMADelayPulseHalfCplt) for TIM_DMADelayPulseHalfCplt
    stm32g0xx_hal_tim_ex.o(i.HAL_TIMEx_OCN_Start_DMA) refers to stm32g0xx_hal_tim.o(i.TIM_DMAError) for TIM_DMAError
    stm32g0xx_hal_tim_ex.o(i.HAL_TIMEx_OCN_Start_IT) refers to stm32g0xx_hal_tim_ex.o(i.TIM_CCxNChannelCmd) for TIM_CCxNChannelCmd
    stm32g0xx_hal_tim_ex.o(i.HAL_TIMEx_OCN_Stop) refers to stm32g0xx_hal_tim_ex.o(i.TIM_CCxNChannelCmd) for TIM_CCxNChannelCmd
    stm32g0xx_hal_tim_ex.o(i.HAL_TIMEx_OCN_Stop_DMA) refers to stm32g0xx_hal_dma.o(i.HAL_DMA_Abort_IT) for HAL_DMA_Abort_IT
    stm32g0xx_hal_tim_ex.o(i.HAL_TIMEx_OCN_Stop_DMA) refers to stm32g0xx_hal_tim_ex.o(i.TIM_CCxNChannelCmd) for TIM_CCxNChannelCmd
    stm32g0xx_hal_tim_ex.o(i.HAL_TIMEx_OCN_Stop_IT) refers to stm32g0xx_hal_tim_ex.o(i.TIM_CCxNChannelCmd) for TIM_CCxNChannelCmd
    stm32g0xx_hal_tim_ex.o(i.HAL_TIMEx_OnePulseN_Start) refers to stm32g0xx_hal_tim_ex.o(i.TIM_CCxNChannelCmd) for TIM_CCxNChannelCmd
    stm32g0xx_hal_tim_ex.o(i.HAL_TIMEx_OnePulseN_Start_IT) refers to stm32g0xx_hal_tim_ex.o(i.TIM_CCxNChannelCmd) for TIM_CCxNChannelCmd
    stm32g0xx_hal_tim_ex.o(i.HAL_TIMEx_OnePulseN_Stop) refers to stm32g0xx_hal_tim_ex.o(i.TIM_CCxNChannelCmd) for TIM_CCxNChannelCmd
    stm32g0xx_hal_tim_ex.o(i.HAL_TIMEx_OnePulseN_Stop_IT) refers to stm32g0xx_hal_tim_ex.o(i.TIM_CCxNChannelCmd) for TIM_CCxNChannelCmd
    stm32g0xx_hal_tim_ex.o(i.HAL_TIMEx_PWMN_Start) refers to stm32g0xx_hal_tim_ex.o(i.TIM_CCxNChannelCmd) for TIM_CCxNChannelCmd
    stm32g0xx_hal_tim_ex.o(i.HAL_TIMEx_PWMN_Start_DMA) refers to stm32g0xx_hal_dma.o(i.HAL_DMA_Start_IT) for HAL_DMA_Start_IT
    stm32g0xx_hal_tim_ex.o(i.HAL_TIMEx_PWMN_Start_DMA) refers to stm32g0xx_hal_tim_ex.o(i.TIM_CCxNChannelCmd) for TIM_CCxNChannelCmd
    stm32g0xx_hal_tim_ex.o(i.HAL_TIMEx_PWMN_Start_DMA) refers to stm32g0xx_hal_tim.o(i.TIM_DMADelayPulseCplt) for TIM_DMADelayPulseCplt
    stm32g0xx_hal_tim_ex.o(i.HAL_TIMEx_PWMN_Start_DMA) refers to stm32g0xx_hal_tim.o(i.TIM_DMADelayPulseHalfCplt) for TIM_DMADelayPulseHalfCplt
    stm32g0xx_hal_tim_ex.o(i.HAL_TIMEx_PWMN_Start_DMA) refers to stm32g0xx_hal_tim.o(i.TIM_DMAError) for TIM_DMAError
    stm32g0xx_hal_tim_ex.o(i.HAL_TIMEx_PWMN_Start_IT) refers to stm32g0xx_hal_tim_ex.o(i.TIM_CCxNChannelCmd) for TIM_CCxNChannelCmd
    stm32g0xx_hal_tim_ex.o(i.HAL_TIMEx_PWMN_Stop) refers to stm32g0xx_hal_tim_ex.o(i.TIM_CCxNChannelCmd) for TIM_CCxNChannelCmd
    stm32g0xx_hal_tim_ex.o(i.HAL_TIMEx_PWMN_Stop_DMA) refers to stm32g0xx_hal_dma.o(i.HAL_DMA_Abort_IT) for HAL_DMA_Abort_IT
    stm32g0xx_hal_tim_ex.o(i.HAL_TIMEx_PWMN_Stop_DMA) refers to stm32g0xx_hal_tim_ex.o(i.TIM_CCxNChannelCmd) for TIM_CCxNChannelCmd
    stm32g0xx_hal_tim_ex.o(i.HAL_TIMEx_PWMN_Stop_IT) refers to stm32g0xx_hal_tim_ex.o(i.TIM_CCxNChannelCmd) for TIM_CCxNChannelCmd
    stm32g0xx_hal_tim_ex.o(i.HAL_TIMEx_ReArmBreakInput) refers to stm32g0xx_hal.o(i.HAL_GetTick) for HAL_GetTick
    stm32g0xx_hal_tim_ex.o(i.TIMEx_DMACommutationCplt) refers to stm32g0xx_hal_tim_ex.o(i.HAL_TIMEx_CommutCallback) for HAL_TIMEx_CommutCallback
    stm32g0xx_hal_tim_ex.o(i.TIMEx_DMACommutationHalfCplt) refers to stm32g0xx_hal_tim_ex.o(i.HAL_TIMEx_CommutHalfCpltCallback) for HAL_TIMEx_CommutHalfCpltCallback
    stm32g0xx_hal_uart.o(i.HAL_HalfDuplex_Init) refers to usart_1.o(i.HAL_UART_MspInit) for HAL_UART_MspInit
    stm32g0xx_hal_uart.o(i.HAL_HalfDuplex_Init) refers to stm32g0xx_hal_uart.o(i.UART_SetConfig) for UART_SetConfig
    stm32g0xx_hal_uart.o(i.HAL_HalfDuplex_Init) refers to stm32g0xx_hal_uart.o(i.UART_AdvFeatureConfig) for UART_AdvFeatureConfig
    stm32g0xx_hal_uart.o(i.HAL_HalfDuplex_Init) refers to stm32g0xx_hal_uart.o(i.UART_CheckIdleState) for UART_CheckIdleState
    stm32g0xx_hal_uart.o(i.HAL_LIN_Init) refers to usart_1.o(i.HAL_UART_MspInit) for HAL_UART_MspInit
    stm32g0xx_hal_uart.o(i.HAL_LIN_Init) refers to stm32g0xx_hal_uart.o(i.UART_SetConfig) for UART_SetConfig
    stm32g0xx_hal_uart.o(i.HAL_LIN_Init) refers to stm32g0xx_hal_uart.o(i.UART_AdvFeatureConfig) for UART_AdvFeatureConfig
    stm32g0xx_hal_uart.o(i.HAL_LIN_Init) refers to stm32g0xx_hal_uart.o(i.UART_CheckIdleState) for UART_CheckIdleState
    stm32g0xx_hal_uart.o(i.HAL_MultiProcessor_DisableMuteMode) refers to stm32g0xx_hal_uart.o(i.UART_CheckIdleState) for UART_CheckIdleState
    stm32g0xx_hal_uart.o(i.HAL_MultiProcessor_EnableMuteMode) refers to stm32g0xx_hal_uart.o(i.UART_CheckIdleState) for UART_CheckIdleState
    stm32g0xx_hal_uart.o(i.HAL_MultiProcessor_Init) refers to usart_1.o(i.HAL_UART_MspInit) for HAL_UART_MspInit
    stm32g0xx_hal_uart.o(i.HAL_MultiProcessor_Init) refers to stm32g0xx_hal_uart.o(i.UART_SetConfig) for UART_SetConfig
    stm32g0xx_hal_uart.o(i.HAL_MultiProcessor_Init) refers to stm32g0xx_hal_uart.o(i.UART_AdvFeatureConfig) for UART_AdvFeatureConfig
    stm32g0xx_hal_uart.o(i.HAL_MultiProcessor_Init) refers to stm32g0xx_hal_uart.o(i.UART_CheckIdleState) for UART_CheckIdleState
    stm32g0xx_hal_uart.o(i.HAL_UART_Abort) refers to stm32g0xx_hal_dma.o(i.HAL_DMA_Abort) for HAL_DMA_Abort
    stm32g0xx_hal_uart.o(i.HAL_UART_Abort) refers to stm32g0xx_hal_dma.o(i.HAL_DMA_GetError) for HAL_DMA_GetError
    stm32g0xx_hal_uart.o(i.HAL_UART_AbortReceive) refers to stm32g0xx_hal_dma.o(i.HAL_DMA_Abort) for HAL_DMA_Abort
    stm32g0xx_hal_uart.o(i.HAL_UART_AbortReceive) refers to stm32g0xx_hal_dma.o(i.HAL_DMA_GetError) for HAL_DMA_GetError
    stm32g0xx_hal_uart.o(i.HAL_UART_AbortReceive_IT) refers to stm32g0xx_hal_dma.o(i.HAL_DMA_Abort_IT) for HAL_DMA_Abort_IT
    stm32g0xx_hal_uart.o(i.HAL_UART_AbortReceive_IT) refers to stm32g0xx_hal_uart.o(i.HAL_UART_AbortReceiveCpltCallback) for HAL_UART_AbortReceiveCpltCallback
    stm32g0xx_hal_uart.o(i.HAL_UART_AbortReceive_IT) refers to stm32g0xx_hal_uart.o(i.UART_DMARxOnlyAbortCallback) for UART_DMARxOnlyAbortCallback
    stm32g0xx_hal_uart.o(i.HAL_UART_AbortTransmit) refers to stm32g0xx_hal_dma.o(i.HAL_DMA_Abort) for HAL_DMA_Abort
    stm32g0xx_hal_uart.o(i.HAL_UART_AbortTransmit) refers to stm32g0xx_hal_dma.o(i.HAL_DMA_GetError) for HAL_DMA_GetError
    stm32g0xx_hal_uart.o(i.HAL_UART_AbortTransmit_IT) refers to stm32g0xx_hal_dma.o(i.HAL_DMA_Abort_IT) for HAL_DMA_Abort_IT
    stm32g0xx_hal_uart.o(i.HAL_UART_AbortTransmit_IT) refers to stm32g0xx_hal_uart.o(i.HAL_UART_AbortTransmitCpltCallback) for HAL_UART_AbortTransmitCpltCallback
    stm32g0xx_hal_uart.o(i.HAL_UART_AbortTransmit_IT) refers to stm32g0xx_hal_uart.o(i.UART_DMATxOnlyAbortCallback) for UART_DMATxOnlyAbortCallback
    stm32g0xx_hal_uart.o(i.HAL_UART_Abort_IT) refers to stm32g0xx_hal_dma.o(i.HAL_DMA_Abort_IT) for HAL_DMA_Abort_IT
    stm32g0xx_hal_uart.o(i.HAL_UART_Abort_IT) refers to stm32g0xx_hal_uart.o(i.HAL_UART_AbortCpltCallback) for HAL_UART_AbortCpltCallback
    stm32g0xx_hal_uart.o(i.HAL_UART_Abort_IT) refers to stm32g0xx_hal_uart.o(i.UART_DMATxAbortCallback) for UART_DMATxAbortCallback
    stm32g0xx_hal_uart.o(i.HAL_UART_Abort_IT) refers to stm32g0xx_hal_uart.o(i.UART_DMARxAbortCallback) for UART_DMARxAbortCallback
    stm32g0xx_hal_uart.o(i.HAL_UART_DMAStop) refers to stm32g0xx_hal_dma.o(i.HAL_DMA_Abort) for HAL_DMA_Abort
    stm32g0xx_hal_uart.o(i.HAL_UART_DMAStop) refers to stm32g0xx_hal_dma.o(i.HAL_DMA_GetError) for HAL_DMA_GetError
    stm32g0xx_hal_uart.o(i.HAL_UART_DMAStop) refers to stm32g0xx_hal_uart.o(i.UART_EndTxTransfer) for UART_EndTxTransfer
    stm32g0xx_hal_uart.o(i.HAL_UART_DMAStop) refers to stm32g0xx_hal_uart.o(i.UART_EndRxTransfer) for UART_EndRxTransfer
    stm32g0xx_hal_uart.o(i.HAL_UART_DeInit) refers to usart_1.o(i.HAL_UART_MspDeInit) for HAL_UART_MspDeInit
    stm32g0xx_hal_uart.o(i.HAL_UART_IRQHandler) refers to stm32g0xx_hal_uart.o(i.UART_EndRxTransfer) for UART_EndRxTransfer
    stm32g0xx_hal_uart.o(i.HAL_UART_IRQHandler) refers to stm32g0xx_hal_dma.o(i.HAL_DMA_Abort_IT) for HAL_DMA_Abort_IT
    stm32g0xx_hal_uart.o(i.HAL_UART_IRQHandler) refers to stm32g0xx_hal_uart.o(i.HAL_UART_ErrorCallback) for HAL_UART_ErrorCallback
    stm32g0xx_hal_uart.o(i.HAL_UART_IRQHandler) refers to stm32g0xx_hal_uart_ex.o(i.HAL_UARTEx_WakeupCallback) for HAL_UARTEx_WakeupCallback
    stm32g0xx_hal_uart.o(i.HAL_UART_IRQHandler) refers to stm32g0xx_hal_uart.o(i.UART_EndTransmit_IT) for UART_EndTransmit_IT
    stm32g0xx_hal_uart.o(i.HAL_UART_IRQHandler) refers to stm32g0xx_hal_uart_ex.o(i.HAL_UARTEx_TxFifoEmptyCallback) for HAL_UARTEx_TxFifoEmptyCallback
    stm32g0xx_hal_uart.o(i.HAL_UART_IRQHandler) refers to stm32g0xx_hal_uart_ex.o(i.HAL_UARTEx_RxFifoFullCallback) for HAL_UARTEx_RxFifoFullCallback
    stm32g0xx_hal_uart.o(i.HAL_UART_IRQHandler) refers to stm32g0xx_hal_uart.o(i.UART_DMAAbortOnError) for UART_DMAAbortOnError
    stm32g0xx_hal_uart.o(i.HAL_UART_Init) refers to usart_1.o(i.HAL_UART_MspInit) for HAL_UART_MspInit
    stm32g0xx_hal_uart.o(i.HAL_UART_Init) refers to stm32g0xx_hal_uart.o(i.UART_SetConfig) for UART_SetConfig
    stm32g0xx_hal_uart.o(i.HAL_UART_Init) refers to stm32g0xx_hal_uart.o(i.UART_AdvFeatureConfig) for UART_AdvFeatureConfig
    stm32g0xx_hal_uart.o(i.HAL_UART_Init) refers to stm32g0xx_hal_uart.o(i.UART_CheckIdleState) for UART_CheckIdleState
    stm32g0xx_hal_uart.o(i.HAL_UART_Receive) refers to stm32g0xx_hal.o(i.HAL_GetTick) for HAL_GetTick
    stm32g0xx_hal_uart.o(i.HAL_UART_Receive) refers to stm32g0xx_hal_uart.o(i.UART_WaitOnFlagUntilTimeout) for UART_WaitOnFlagUntilTimeout
    stm32g0xx_hal_uart.o(i.HAL_UART_Receive_DMA) refers to stm32g0xx_hal_dma.o(i.HAL_DMA_Start_IT) for HAL_DMA_Start_IT
    stm32g0xx_hal_uart.o(i.HAL_UART_Receive_DMA) refers to stm32g0xx_hal_uart.o(i.UART_DMAReceiveCplt) for UART_DMAReceiveCplt
    stm32g0xx_hal_uart.o(i.HAL_UART_Receive_DMA) refers to stm32g0xx_hal_uart.o(i.UART_DMARxHalfCplt) for UART_DMARxHalfCplt
    stm32g0xx_hal_uart.o(i.HAL_UART_Receive_DMA) refers to stm32g0xx_hal_uart.o(i.UART_DMAError) for UART_DMAError
    stm32g0xx_hal_uart.o(i.HAL_UART_Receive_IT) refers to stm32g0xx_hal_uart.o(i.UART_RxISR_16BIT_FIFOEN) for UART_RxISR_16BIT_FIFOEN
    stm32g0xx_hal_uart.o(i.HAL_UART_Receive_IT) refers to stm32g0xx_hal_uart.o(i.UART_RxISR_8BIT_FIFOEN) for UART_RxISR_8BIT_FIFOEN
    stm32g0xx_hal_uart.o(i.HAL_UART_Receive_IT) refers to stm32g0xx_hal_uart.o(i.UART_RxISR_16BIT) for UART_RxISR_16BIT
    stm32g0xx_hal_uart.o(i.HAL_UART_Receive_IT) refers to stm32g0xx_hal_uart.o(i.UART_RxISR_8BIT) for UART_RxISR_8BIT
    stm32g0xx_hal_uart.o(i.HAL_UART_Transmit) refers to stm32g0xx_hal.o(i.HAL_GetTick) for HAL_GetTick
    stm32g0xx_hal_uart.o(i.HAL_UART_Transmit) refers to stm32g0xx_hal_uart.o(i.UART_WaitOnFlagUntilTimeout) for UART_WaitOnFlagUntilTimeout
    stm32g0xx_hal_uart.o(i.HAL_UART_Transmit_DMA) refers to stm32g0xx_hal_dma.o(i.HAL_DMA_Start_IT) for HAL_DMA_Start_IT
    stm32g0xx_hal_uart.o(i.HAL_UART_Transmit_DMA) refers to stm32g0xx_hal_uart.o(i.UART_DMATransmitCplt) for UART_DMATransmitCplt
    stm32g0xx_hal_uart.o(i.HAL_UART_Transmit_DMA) refers to stm32g0xx_hal_uart.o(i.UART_DMATxHalfCplt) for UART_DMATxHalfCplt
    stm32g0xx_hal_uart.o(i.HAL_UART_Transmit_DMA) refers to stm32g0xx_hal_uart.o(i.UART_DMAError) for UART_DMAError
    stm32g0xx_hal_uart.o(i.HAL_UART_Transmit_IT) refers to stm32g0xx_hal_uart.o(i.UART_TxISR_16BIT_FIFOEN) for UART_TxISR_16BIT_FIFOEN
    stm32g0xx_hal_uart.o(i.HAL_UART_Transmit_IT) refers to stm32g0xx_hal_uart.o(i.UART_TxISR_8BIT_FIFOEN) for UART_TxISR_8BIT_FIFOEN
    stm32g0xx_hal_uart.o(i.HAL_UART_Transmit_IT) refers to stm32g0xx_hal_uart.o(i.UART_TxISR_16BIT) for UART_TxISR_16BIT
    stm32g0xx_hal_uart.o(i.HAL_UART_Transmit_IT) refers to stm32g0xx_hal_uart.o(i.UART_TxISR_8BIT) for UART_TxISR_8BIT
    stm32g0xx_hal_uart.o(i.UART_CheckIdleState) refers to stm32g0xx_hal.o(i.HAL_GetTick) for HAL_GetTick
    stm32g0xx_hal_uart.o(i.UART_CheckIdleState) refers to stm32g0xx_hal_uart.o(i.UART_WaitOnFlagUntilTimeout) for UART_WaitOnFlagUntilTimeout
    stm32g0xx_hal_uart.o(i.UART_DMAAbortOnError) refers to stm32g0xx_hal_uart.o(i.HAL_UART_ErrorCallback) for HAL_UART_ErrorCallback
    stm32g0xx_hal_uart.o(i.UART_DMAError) refers to stm32g0xx_hal_uart.o(i.UART_EndTxTransfer) for UART_EndTxTransfer
    stm32g0xx_hal_uart.o(i.UART_DMAError) refers to stm32g0xx_hal_uart.o(i.UART_EndRxTransfer) for UART_EndRxTransfer
    stm32g0xx_hal_uart.o(i.UART_DMAError) refers to stm32g0xx_hal_uart.o(i.HAL_UART_ErrorCallback) for HAL_UART_ErrorCallback
    stm32g0xx_hal_uart.o(i.UART_DMAReceiveCplt) refers to stm32g0xx_hal_uart.o(i.HAL_UART_RxCpltCallback) for HAL_UART_RxCpltCallback
    stm32g0xx_hal_uart.o(i.UART_DMARxAbortCallback) refers to stm32g0xx_hal_uart.o(i.HAL_UART_AbortCpltCallback) for HAL_UART_AbortCpltCallback
    stm32g0xx_hal_uart.o(i.UART_DMARxHalfCplt) refers to stm32g0xx_hal_uart.o(i.HAL_UART_RxHalfCpltCallback) for HAL_UART_RxHalfCpltCallback
    stm32g0xx_hal_uart.o(i.UART_DMARxOnlyAbortCallback) refers to stm32g0xx_hal_uart.o(i.HAL_UART_AbortReceiveCpltCallback) for HAL_UART_AbortReceiveCpltCallback
    stm32g0xx_hal_uart.o(i.UART_DMATransmitCplt) refers to stm32g0xx_hal_uart.o(i.HAL_UART_TxCpltCallback) for HAL_UART_TxCpltCallback
    stm32g0xx_hal_uart.o(i.UART_DMATxAbortCallback) refers to stm32g0xx_hal_uart.o(i.HAL_UART_AbortCpltCallback) for HAL_UART_AbortCpltCallback
    stm32g0xx_hal_uart.o(i.UART_DMATxHalfCplt) refers to stm32g0xx_hal_uart.o(i.HAL_UART_TxHalfCpltCallback) for HAL_UART_TxHalfCpltCallback
    stm32g0xx_hal_uart.o(i.UART_DMATxOnlyAbortCallback) refers to stm32g0xx_hal_uart.o(i.HAL_UART_AbortTransmitCpltCallback) for HAL_UART_AbortTransmitCpltCallback
    stm32g0xx_hal_uart.o(i.UART_EndTransmit_IT) refers to stm32g0xx_hal_uart.o(i.HAL_UART_TxCpltCallback) for HAL_UART_TxCpltCallback
    stm32g0xx_hal_uart.o(i.UART_RxISR_16BIT) refers to stm32g0xx_hal_uart.o(i.HAL_UART_RxCpltCallback) for HAL_UART_RxCpltCallback
    stm32g0xx_hal_uart.o(i.UART_RxISR_16BIT_FIFOEN) refers to stm32g0xx_hal_uart.o(i.HAL_UART_RxCpltCallback) for HAL_UART_RxCpltCallback
    stm32g0xx_hal_uart.o(i.UART_RxISR_16BIT_FIFOEN) refers to stm32g0xx_hal_uart.o(i.UART_RxISR_16BIT) for UART_RxISR_16BIT
    stm32g0xx_hal_uart.o(i.UART_RxISR_8BIT) refers to stm32g0xx_hal_uart.o(i.HAL_UART_RxCpltCallback) for HAL_UART_RxCpltCallback
    stm32g0xx_hal_uart.o(i.UART_RxISR_8BIT_FIFOEN) refers to stm32g0xx_hal_uart.o(i.HAL_UART_RxCpltCallback) for HAL_UART_RxCpltCallback
    stm32g0xx_hal_uart.o(i.UART_RxISR_8BIT_FIFOEN) refers to stm32g0xx_hal_uart.o(i.UART_RxISR_8BIT) for UART_RxISR_8BIT
    stm32g0xx_hal_uart.o(i.UART_SetConfig) refers to stm32g0xx_hal_rcc.o(i.HAL_RCC_GetPCLK1Freq) for HAL_RCC_GetPCLK1Freq
    stm32g0xx_hal_uart.o(i.UART_SetConfig) refers to uidiv.o(.text) for __aeabi_uidivmod
    stm32g0xx_hal_uart.o(i.UART_SetConfig) refers to stm32g0xx_hal_rcc.o(i.HAL_RCC_GetSysClockFreq) for HAL_RCC_GetSysClockFreq
    stm32g0xx_hal_uart.o(i.UART_WaitOnFlagUntilTimeout) refers to stm32g0xx_hal.o(i.HAL_GetTick) for HAL_GetTick
    stm32g0xx_hal_uart_ex.o(i.HAL_MultiProcessorEx_AddressLength_Set) refers to stm32g0xx_hal_uart.o(i.UART_CheckIdleState) for UART_CheckIdleState
    stm32g0xx_hal_uart_ex.o(i.HAL_RS485Ex_Init) refers to usart_1.o(i.HAL_UART_MspInit) for HAL_UART_MspInit
    stm32g0xx_hal_uart_ex.o(i.HAL_RS485Ex_Init) refers to stm32g0xx_hal_uart.o(i.UART_SetConfig) for UART_SetConfig
    stm32g0xx_hal_uart_ex.o(i.HAL_RS485Ex_Init) refers to stm32g0xx_hal_uart.o(i.UART_AdvFeatureConfig) for UART_AdvFeatureConfig
    stm32g0xx_hal_uart_ex.o(i.HAL_RS485Ex_Init) refers to stm32g0xx_hal_uart.o(i.UART_CheckIdleState) for UART_CheckIdleState
    stm32g0xx_hal_uart_ex.o(i.HAL_UARTEx_EnableFifoMode) refers to stm32g0xx_hal_uart_ex.o(i.UARTEx_SetNbDataToProcess) for UARTEx_SetNbDataToProcess
    stm32g0xx_hal_uart_ex.o(i.HAL_UARTEx_SetRxFifoThreshold) refers to stm32g0xx_hal_uart_ex.o(i.UARTEx_SetNbDataToProcess) for UARTEx_SetNbDataToProcess
    stm32g0xx_hal_uart_ex.o(i.HAL_UARTEx_SetTxFifoThreshold) refers to stm32g0xx_hal_uart_ex.o(i.UARTEx_SetNbDataToProcess) for UARTEx_SetNbDataToProcess
    stm32g0xx_hal_uart_ex.o(i.HAL_UARTEx_StopModeWakeUpSourceConfig) refers to stm32g0xx_hal_uart_ex.o(i.UARTEx_Wakeup_AddressConfig) for UARTEx_Wakeup_AddressConfig
    stm32g0xx_hal_uart_ex.o(i.HAL_UARTEx_StopModeWakeUpSourceConfig) refers to stm32g0xx_hal.o(i.HAL_GetTick) for HAL_GetTick
    stm32g0xx_hal_uart_ex.o(i.HAL_UARTEx_StopModeWakeUpSourceConfig) refers to stm32g0xx_hal_uart.o(i.UART_WaitOnFlagUntilTimeout) for UART_WaitOnFlagUntilTimeout
    stm32g0xx_hal_uart_ex.o(i.UARTEx_SetNbDataToProcess) refers to idiv.o(.text) for __aeabi_idivmod
    stm32g0xx_hal_iwdg.o(i.HAL_IWDG_Init) refers to stm32g0xx_hal.o(i.HAL_GetTick) for HAL_GetTick
    system_stm32g0xx.o(i.SystemCoreClockUpdate) refers to uidiv.o(.text) for __aeabi_uidivmod
    system_stm32g0xx.o(i.SystemCoreClockUpdate) refers to system_stm32g0xx.o(.data) for SystemCoreClock
    system_stm32g0xx.o(i.SystemCoreClockUpdate) refers to system_stm32g0xx.o(.constdata) for AHBPrescTable
    entry.o(.ARM.Collect$$$$00000000) refers (Special) to entry10a.o(.ARM.Collect$$$$0000000D) for __rt_final_cpp
    entry.o(.ARM.Collect$$$$00000000) refers (Special) to entry11a.o(.ARM.Collect$$$$0000000F) for __rt_final_exit
    entry.o(.ARM.Collect$$$$00000000) refers (Special) to entry7b.o(.ARM.Collect$$$$00000008) for _main_clock
    entry.o(.ARM.Collect$$$$00000000) refers (Special) to entry8b.o(.ARM.Collect$$$$0000000A) for _main_cpp_init
    entry.o(.ARM.Collect$$$$00000000) refers (Special) to entry9a.o(.ARM.Collect$$$$0000000B) for _main_init
    entry.o(.ARM.Collect$$$$00000000) refers (Special) to entry5.o(.ARM.Collect$$$$00000004) for _main_scatterload
    entry.o(.ARM.Collect$$$$00000000) refers (Special) to entry2.o(.ARM.Collect$$$$00000001) for _main_stk
    idiv.o(.text) refers to uidiv.o(.text) for __aeabi_uidivmod
    uldiv.o(.text) refers to llushr.o(.text) for __aeabi_llsr
    uldiv.o(.text) refers to llshl.o(.text) for __aeabi_llsl
    entry2.o(.ARM.Collect$$$$00000001) refers to entry2.o(.ARM.Collect$$$$00002712) for __lit__00000000
    entry2.o(.ARM.Collect$$$$00002712) refers to startup_stm32g070xx.o(STACK) for __initial_sp
    entry2.o(__vectab_stack_and_reset_area) refers to startup_stm32g070xx.o(STACK) for __initial_sp
    entry2.o(__vectab_stack_and_reset_area) refers to entry.o(.ARM.Collect$$$$00000000) for __main
    entry5.o(.ARM.Collect$$$$00000004) refers to init.o(.text) for __scatterload
    entry9a.o(.ARM.Collect$$$$0000000B) refers to components.o(i.$Sub$$main) for main
    entry9b.o(.ARM.Collect$$$$0000000C) refers to components.o(i.$Sub$$main) for main
    init.o(.text) refers to entry5.o(.ARM.Collect$$$$00000004) for __main_after_scatterload


==============================================================================

Removing Unused input sections from the image.

    Removing startup_stm32g070xx.o(HEAP), (512 bytes).
    Removing main.o(.rev16_text), (4 bytes).
    Removing main.o(.revsh_text), (4 bytes).
    Removing stm32g0xx_it.o(.rev16_text), (4 bytes).
    Removing stm32g0xx_it.o(.revsh_text), (4 bytes).
    Removing stm32g0xx_hal_msp.o(.rev16_text), (4 bytes).
    Removing stm32g0xx_hal_msp.o(.revsh_text), (4 bytes).
    Removing para.o(.rev16_text), (4 bytes).
    Removing para.o(.revsh_text), (4 bytes).
    Removing para.o(i.ArrToHex), (14 bytes).
    Removing para.o(i.GetAverage), (78 bytes).
    Removing para.o(i.GetDelExtremeAndAverage), (36 bytes).
    Removing para.o(i.SortArrayExtreme), (124 bytes).
    Removing para.o(i.Switch_Fiter), (76 bytes).
    Removing board.o(.rev16_text), (4 bytes).
    Removing board.o(.revsh_text), (4 bytes).
    Removing system.o(.rev16_text), (4 bytes).
    Removing system.o(.revsh_text), (4 bytes).
    Removing system_clock.o(.rev16_text), (4 bytes).
    Removing system_clock.o(.revsh_text), (4 bytes).
    Removing task.o(.rev16_text), (4 bytes).
    Removing task.o(.revsh_text), (4 bytes).
    Removing task.o(.bss), (20 bytes).
    Removing usart_1.o(.rev16_text), (4 bytes).
    Removing usart_1.o(.revsh_text), (4 bytes).
    Removing usart_1.o(i.HAL_UART_MspDeInit), (68 bytes).
    Removing usart_1.o(i.UART_DMA_Recv), (32 bytes).
    Removing tim_1.o(.rev16_text), (4 bytes).
    Removing tim_1.o(.revsh_text), (4 bytes).
    Removing tim_1.o(i.HAL_TIM_Base_MspDeInit), (72 bytes).
    Removing tim_1.o(i.TIM1_ETR_Init), (216 bytes).
    Removing led.o(.rev16_text), (4 bytes).
    Removing led.o(.revsh_text), (4 bytes).
    Removing dma_1.o(.rev16_text), (4 bytes).
    Removing dma_1.o(.revsh_text), (4 bytes).
    Removing adc_1.o(.rev16_text), (4 bytes).
    Removing adc_1.o(.revsh_text), (4 bytes).
    Removing adc_1.o(i.HAL_ADC_MspDeInit), (52 bytes).
    Removing modbus_asc.o(.rev16_text), (4 bytes).
    Removing modbus_asc.o(.revsh_text), (4 bytes).
    Removing modbus_ascii.o(.rev16_text), (4 bytes).
    Removing modbus_ascii.o(.revsh_text), (4 bytes).
    Removing common.o(.rev16_text), (4 bytes).
    Removing common.o(.revsh_text), (4 bytes).
    Removing common.o(i.Delay_Ms), (18 bytes).
    Removing common.o(i.Delay_Us), (14 bytes).
    Removing common.o(i.Unlong2Array), (26 bytes).
    Removing common.o(i.Unshort2Array), (16 bytes).
    Removing common.o(i.delay_us), (36 bytes).
    Removing iwdg.o(.rev16_text), (4 bytes).
    Removing iwdg.o(.revsh_text), (4 bytes).
    Removing iwdg.o(i.User_Iwdg_Feed), (16 bytes).
    Removing inflash.o(.rev16_text), (4 bytes).
    Removing inflash.o(.revsh_text), (4 bytes).
    Removing inflash.o(i.FLASH_If_Erase), (104 bytes).
    Removing inflash.o(i.FlashReadHalfWord), (6 bytes).
    Removing inflash.o(i.FlashReadNHalfWord), (38 bytes).
    Removing inflash.o(i.FlashWriteHalfWord), (36 bytes).
    Removing clock.o(i.rt_system_tick_init), (2 bytes).
    Removing clock.o(i.rt_tick_set), (28 bytes).
    Removing idle.o(i.rt_thread_idle_gethandler), (8 bytes).
    Removing ipc.o(i.rt_event_control), (50 bytes).
    Removing ipc.o(i.rt_event_create), (40 bytes).
    Removing ipc.o(i.rt_event_delete), (22 bytes).
    Removing ipc.o(i.rt_event_detach), (22 bytes).
    Removing ipc.o(i.rt_event_init), (32 bytes).
    Removing ipc.o(i.rt_event_recv), (224 bytes).
    Removing ipc.o(i.rt_event_send), (186 bytes).
    Removing ipc.o(i.rt_ipc_list_resume_all), (50 bytes).
    Removing ipc.o(i.rt_mb_control), (62 bytes).
    Removing ipc.o(i.rt_mb_create), (82 bytes).
    Removing ipc.o(i.rt_mb_delete), (36 bytes).
    Removing ipc.o(i.rt_mb_detach), (30 bytes).
    Removing ipc.o(i.rt_mb_init), (54 bytes).
    Removing ipc.o(i.rt_mb_recv), (254 bytes).
    Removing ipc.o(i.rt_mb_send), (18 bytes).
    Removing ipc.o(i.rt_mb_send_wait), (254 bytes).
    Removing ipc.o(i.rt_mq_control), (76 bytes).
    Removing ipc.o(i.rt_mq_create), (124 bytes).
    Removing ipc.o(i.rt_mq_delete), (28 bytes).
    Removing ipc.o(i.rt_mq_detach), (22 bytes).
    Removing ipc.o(i.rt_mq_init), (98 bytes).
    Removing ipc.o(i.rt_mq_recv), (260 bytes).
    Removing ipc.o(i.rt_mq_send), (142 bytes).
    Removing ipc.o(i.rt_mq_urgent), (132 bytes).
    Removing ipc.o(i.rt_mutex_control), (8 bytes).
    Removing ipc.o(i.rt_mutex_create), (56 bytes).
    Removing ipc.o(i.rt_mutex_delete), (22 bytes).
    Removing ipc.o(i.rt_mutex_detach), (22 bytes).
    Removing ipc.o(i.rt_mutex_init), (50 bytes).
    Removing ipc.o(i.rt_mutex_release), (168 bytes).
    Removing ipc.o(i.rt_mutex_take), (210 bytes).
    Removing ipc.o(i.rt_sem_control), (50 bytes).
    Removing ipc.o(i.rt_sem_create), (40 bytes).
    Removing ipc.o(i.rt_sem_delete), (22 bytes).
    Removing ipc.o(i.rt_sem_detach), (22 bytes).
    Removing ipc.o(i.rt_sem_trytake), (14 bytes).
    Removing irq.o(i.rt_interrupt_get_nest), (12 bytes).
    Removing kservice.o(i._rt_errno), (40 bytes).
    Removing kservice.o(i.rt_free_align), (18 bytes).
    Removing kservice.o(i.rt_get_errno), (40 bytes).
    Removing kservice.o(i.rt_kputs), (20 bytes).
    Removing kservice.o(i.rt_malloc_align), (66 bytes).
    Removing kservice.o(i.rt_memcmp), (38 bytes).
    Removing kservice.o(i.rt_memcpy), (94 bytes).
    Removing kservice.o(i.rt_set_errno), (44 bytes).
    Removing kservice.o(i.rt_snprintf), (40 bytes).
    Removing kservice.o(i.rt_sprintf), (36 bytes).
    Removing kservice.o(i.rt_strcasecmp), (48 bytes).
    Removing kservice.o(i.rt_strcmp), (30 bytes).
    Removing kservice.o(i.rt_strdup), (40 bytes).
    Removing kservice.o(i.rt_strncmp), (42 bytes).
    Removing kservice.o(i.rt_strnlen), (26 bytes).
    Removing kservice.o(i.rt_strstr), (62 bytes).
    Removing kservice.o(i.rt_vsprintf), (22 bytes).
    Removing kservice.o(.data), (4 bytes).
    Removing mem.o(i.rt_memory_info), (44 bytes).
    Removing mem.o(i.rt_realloc), (304 bytes).
    Removing object.o(i.rt_object_find), (90 bytes).
    Removing object.o(i.rt_object_get_type), (10 bytes).
    Removing object.o(i.rt_system_object_init), (2 bytes).
    Removing scheduler.o(i.rt_critical_level), (12 bytes).
    Removing thread.o(i.rt_thread_control), (112 bytes).
    Removing thread.o(i.rt_thread_delay), (12 bytes).
    Removing thread.o(i.rt_thread_delete), (68 bytes).
    Removing thread.o(i.rt_thread_detach), (92 bytes).
    Removing thread.o(i.rt_thread_find), (86 bytes).
    Removing timer.o(i.rt_timer_create), (46 bytes).
    Removing timer.o(i.rt_timer_delete), (32 bytes).
    Removing timer.o(i.rt_timer_list_next_timeout), (30 bytes).
    Removing timer.o(i.rt_timer_next_timeout_tick), (16 bytes).
    Removing cpuport.o(i.rt_hw_cpu_reset), (16 bytes).
    Removing shell.o(i.finsh_get_echo), (20 bytes).
    Removing shell.o(i.finsh_get_prompt_mode), (20 bytes).
    Removing shell.o(i.finsh_set_echo), (32 bytes).
    Removing shell.o(i.finsh_set_prompt), (76 bytes).
    Removing shell.o(i.finsh_system_var_init), (20 bytes).
    Removing stm32g0xx_hal_gpio.o(.rev16_text), (4 bytes).
    Removing stm32g0xx_hal_gpio.o(.revsh_text), (4 bytes).
    Removing stm32g0xx_hal_gpio.o(i.HAL_GPIO_DeInit), (268 bytes).
    Removing stm32g0xx_hal_gpio.o(i.HAL_GPIO_EXTI_Falling_Callback), (2 bytes).
    Removing stm32g0xx_hal_gpio.o(i.HAL_GPIO_EXTI_IRQHandler), (52 bytes).
    Removing stm32g0xx_hal_gpio.o(i.HAL_GPIO_EXTI_Rising_Callback), (2 bytes).
    Removing stm32g0xx_hal_gpio.o(i.HAL_GPIO_LockPin), (50 bytes).
    Removing stm32g0xx_hal_gpio.o(i.HAL_GPIO_ReadPin), (18 bytes).
    Removing stm32g0xx_hal_adc.o(.rev16_text), (4 bytes).
    Removing stm32g0xx_hal_adc.o(.revsh_text), (4 bytes).
    Removing stm32g0xx_hal_adc.o(i.ADC_ConversionStop), (100 bytes).
    Removing stm32g0xx_hal_adc.o(i.ADC_DMAConvCplt), (144 bytes).
    Removing stm32g0xx_hal_adc.o(i.ADC_DMAError), (30 bytes).
    Removing stm32g0xx_hal_adc.o(i.ADC_DMAHalfConvCplt), (14 bytes).
    Removing stm32g0xx_hal_adc.o(i.ADC_Disable), (126 bytes).
    Removing stm32g0xx_hal_adc.o(i.ADC_Enable), (140 bytes).
    Removing stm32g0xx_hal_adc.o(i.HAL_ADC_ConvCpltCallback), (2 bytes).
    Removing stm32g0xx_hal_adc.o(i.HAL_ADC_ConvHalfCpltCallback), (2 bytes).
    Removing stm32g0xx_hal_adc.o(i.HAL_ADC_DeInit), (184 bytes).
    Removing stm32g0xx_hal_adc.o(i.HAL_ADC_ErrorCallback), (2 bytes).
    Removing stm32g0xx_hal_adc.o(i.HAL_ADC_GetError), (6 bytes).
    Removing stm32g0xx_hal_adc.o(i.HAL_ADC_GetState), (6 bytes).
    Removing stm32g0xx_hal_adc.o(i.HAL_ADC_GetValue), (8 bytes).
    Removing stm32g0xx_hal_adc.o(i.HAL_ADC_IRQHandler), (424 bytes).
    Removing stm32g0xx_hal_adc.o(i.HAL_ADC_LevelOutOfWindowCallback), (2 bytes).
    Removing stm32g0xx_hal_adc.o(i.HAL_ADC_MspDeInit), (2 bytes).
    Removing stm32g0xx_hal_adc.o(i.HAL_ADC_MspInit), (2 bytes).
    Removing stm32g0xx_hal_adc.o(i.HAL_ADC_PollForConversion), (210 bytes).
    Removing stm32g0xx_hal_adc.o(i.HAL_ADC_PollForEvent), (218 bytes).
    Removing stm32g0xx_hal_adc.o(i.HAL_ADC_Start), (112 bytes).
    Removing stm32g0xx_hal_adc.o(i.HAL_ADC_Start_DMA), (204 bytes).
    Removing stm32g0xx_hal_adc.o(i.HAL_ADC_Start_IT), (176 bytes).
    Removing stm32g0xx_hal_adc.o(i.HAL_ADC_Stop), (78 bytes).
    Removing stm32g0xx_hal_adc.o(i.HAL_ADC_Stop_DMA), (144 bytes).
    Removing stm32g0xx_hal_adc.o(i.HAL_ADC_Stop_IT), (90 bytes).
    Removing stm32g0xx_hal_adc.o(i.LL_ADC_Disable), (16 bytes).
    Removing stm32g0xx_hal_adc.o(i.LL_ADC_Enable), (16 bytes).
    Removing stm32g0xx_hal_adc.o(i.LL_ADC_IsDisableOngoing), (12 bytes).
    Removing stm32g0xx_hal_adc.o(i.LL_ADC_REG_IsTriggerSourceSWStart), (22 bytes).
    Removing stm32g0xx_hal_adc.o(i.LL_ADC_REG_StartConversion), (16 bytes).
    Removing stm32g0xx_hal_adc_ex.o(.rev16_text), (4 bytes).
    Removing stm32g0xx_hal_adc_ex.o(.revsh_text), (4 bytes).
    Removing stm32g0xx_hal_adc_ex.o(i.HAL_ADCEx_Calibration_GetValue), (14 bytes).
    Removing stm32g0xx_hal_adc_ex.o(i.HAL_ADCEx_Calibration_SetValue), (120 bytes).
    Removing stm32g0xx_hal_adc_ex.o(i.HAL_ADCEx_Calibration_Start), (200 bytes).
    Removing stm32g0xx_hal_adc_ex.o(i.HAL_ADCEx_ChannelConfigReadyCallback), (2 bytes).
    Removing stm32g0xx_hal_adc_ex.o(i.HAL_ADCEx_DisableVoltageRegulator), (40 bytes).
    Removing stm32g0xx_hal_adc_ex.o(i.HAL_ADCEx_EndOfSamplingCallback), (2 bytes).
    Removing stm32g0xx_hal_adc_ex.o(i.HAL_ADCEx_LevelOutOfWindow2Callback), (2 bytes).
    Removing stm32g0xx_hal_adc_ex.o(i.HAL_ADCEx_LevelOutOfWindow3Callback), (2 bytes).
    Removing stm32g0xx_hal_adc_ex.o(i.LL_ADC_IsEnabled), (16 bytes).
    Removing stm32g0xx_hal_rcc.o(.rev16_text), (4 bytes).
    Removing stm32g0xx_hal_rcc.o(.revsh_text), (4 bytes).
    Removing stm32g0xx_hal_rcc.o(i.HAL_RCC_CSSCallback), (2 bytes).
    Removing stm32g0xx_hal_rcc.o(i.HAL_RCC_DeInit), (208 bytes).
    Removing stm32g0xx_hal_rcc.o(i.HAL_RCC_DisableLSECSS), (20 bytes).
    Removing stm32g0xx_hal_rcc.o(i.HAL_RCC_EnableCSS), (20 bytes).
    Removing stm32g0xx_hal_rcc.o(i.HAL_RCC_EnableLSECSS), (20 bytes).
    Removing stm32g0xx_hal_rcc.o(i.HAL_RCC_GetClockConfig), (60 bytes).
    Removing stm32g0xx_hal_rcc.o(i.HAL_RCC_GetOscConfig), (252 bytes).
    Removing stm32g0xx_hal_rcc.o(i.HAL_RCC_LSECSSCallback), (2 bytes).
    Removing stm32g0xx_hal_rcc.o(i.HAL_RCC_MCOConfig), (96 bytes).
    Removing stm32g0xx_hal_rcc.o(i.HAL_RCC_NMI_IRQHandler), (48 bytes).
    Removing stm32g0xx_hal_rcc_ex.o(.rev16_text), (4 bytes).
    Removing stm32g0xx_hal_rcc_ex.o(.revsh_text), (4 bytes).
    Removing stm32g0xx_hal_rcc_ex.o(i.HAL_RCCEx_DisableLSCO), (120 bytes).
    Removing stm32g0xx_hal_rcc_ex.o(i.HAL_RCCEx_EnableLSCO), (188 bytes).
    Removing stm32g0xx_hal_rcc_ex.o(i.HAL_RCCEx_GetPeriphCLKConfig), (84 bytes).
    Removing stm32g0xx_hal_rcc_ex.o(i.HAL_RCCEx_GetPeriphCLKFreq), (688 bytes).
    Removing stm32g0xx_hal_flash.o(.rev16_text), (4 bytes).
    Removing stm32g0xx_hal_flash.o(.revsh_text), (4 bytes).
    Removing stm32g0xx_hal_flash.o(i.HAL_FLASH_EndOfOperationCallback), (2 bytes).
    Removing stm32g0xx_hal_flash.o(i.HAL_FLASH_GetError), (12 bytes).
    Removing stm32g0xx_hal_flash.o(i.HAL_FLASH_IRQHandler), (300 bytes).
    Removing stm32g0xx_hal_flash.o(i.HAL_FLASH_OB_Launch), (24 bytes).
    Removing stm32g0xx_hal_flash.o(i.HAL_FLASH_OB_Lock), (36 bytes).
    Removing stm32g0xx_hal_flash.o(i.HAL_FLASH_OB_Unlock), (52 bytes).
    Removing stm32g0xx_hal_flash.o(i.HAL_FLASH_OperationErrorCallback), (2 bytes).
    Removing stm32g0xx_hal_flash.o(i.HAL_FLASH_Program_IT), (140 bytes).
    Removing stm32g0xx_hal_flash_ex.o(.rev16_text), (4 bytes).
    Removing stm32g0xx_hal_flash_ex.o(.revsh_text), (4 bytes).
    Removing stm32g0xx_hal_flash_ex.o(i.FLASH_FlushCaches), (72 bytes).
    Removing stm32g0xx_hal_flash_ex.o(i.FLASH_OB_GetRDP), (28 bytes).
    Removing stm32g0xx_hal_flash_ex.o(i.FLASH_OB_GetUser), (24 bytes).
    Removing stm32g0xx_hal_flash_ex.o(i.FLASH_OB_GetWRP), (64 bytes).
    Removing stm32g0xx_hal_flash_ex.o(i.FLASH_OB_OptrConfig), (32 bytes).
    Removing stm32g0xx_hal_flash_ex.o(i.FLASH_OB_WRPConfig), (32 bytes).
    Removing stm32g0xx_hal_flash_ex.o(i.HAL_FLASHEx_Erase_IT), (124 bytes).
    Removing stm32g0xx_hal_flash_ex.o(i.HAL_FLASHEx_FlashEmptyCheck), (16 bytes).
    Removing stm32g0xx_hal_flash_ex.o(i.HAL_FLASHEx_ForceFlashEmpty), (28 bytes).
    Removing stm32g0xx_hal_flash_ex.o(i.HAL_FLASHEx_OBGetConfig), (44 bytes).
    Removing stm32g0xx_hal_flash_ex.o(i.HAL_FLASHEx_OBProgram), (200 bytes).
    Removing stm32g0xx_hal_dma.o(.rev16_text), (4 bytes).
    Removing stm32g0xx_hal_dma.o(.revsh_text), (4 bytes).
    Removing stm32g0xx_hal_dma.o(i.HAL_DMA_DeInit), (160 bytes).
    Removing stm32g0xx_hal_dma.o(i.HAL_DMA_GetState), (8 bytes).
    Removing stm32g0xx_hal_dma.o(i.HAL_DMA_PollForTransfer), (364 bytes).
    Removing stm32g0xx_hal_dma.o(i.HAL_DMA_RegisterCallback), (92 bytes).
    Removing stm32g0xx_hal_dma.o(i.HAL_DMA_Start), (120 bytes).
    Removing stm32g0xx_hal_dma.o(i.HAL_DMA_UnRegisterCallback), (108 bytes).
    Removing stm32g0xx_hal_dma_ex.o(.rev16_text), (4 bytes).
    Removing stm32g0xx_hal_dma_ex.o(.revsh_text), (4 bytes).
    Removing stm32g0xx_hal_dma_ex.o(i.HAL_DMAEx_ConfigMuxRequestGenerator), (74 bytes).
    Removing stm32g0xx_hal_dma_ex.o(i.HAL_DMAEx_ConfigMuxSync), (90 bytes).
    Removing stm32g0xx_hal_dma_ex.o(i.HAL_DMAEx_DisableMuxRequestGenerator), (38 bytes).
    Removing stm32g0xx_hal_dma_ex.o(i.HAL_DMAEx_EnableMuxRequestGenerator), (38 bytes).
    Removing stm32g0xx_hal_dma_ex.o(i.HAL_DMAEx_MUX_IRQHandler), (120 bytes).
    Removing stm32g0xx_hal_pwr.o(.rev16_text), (4 bytes).
    Removing stm32g0xx_hal_pwr.o(.revsh_text), (4 bytes).
    Removing stm32g0xx_hal_pwr.o(i.HAL_PWR_DeInit), (32 bytes).
    Removing stm32g0xx_hal_pwr.o(i.HAL_PWR_DisableBkUpAccess), (20 bytes).
    Removing stm32g0xx_hal_pwr.o(i.HAL_PWR_DisableSEVOnPend), (20 bytes).
    Removing stm32g0xx_hal_pwr.o(i.HAL_PWR_DisableSleepOnExit), (20 bytes).
    Removing stm32g0xx_hal_pwr.o(i.HAL_PWR_DisableWakeUpPin), (20 bytes).
    Removing stm32g0xx_hal_pwr.o(i.HAL_PWR_EnableBkUpAccess), (20 bytes).
    Removing stm32g0xx_hal_pwr.o(i.HAL_PWR_EnableSEVOnPend), (20 bytes).
    Removing stm32g0xx_hal_pwr.o(i.HAL_PWR_EnableSleepOnExit), (20 bytes).
    Removing stm32g0xx_hal_pwr.o(i.HAL_PWR_EnableWakeUpPin), (40 bytes).
    Removing stm32g0xx_hal_pwr.o(i.HAL_PWR_EnterSLEEPMode), (92 bytes).
    Removing stm32g0xx_hal_pwr.o(i.HAL_PWR_EnterSTANDBYMode), (44 bytes).
    Removing stm32g0xx_hal_pwr.o(i.HAL_PWR_EnterSTOPMode), (80 bytes).
    Removing stm32g0xx_hal_pwr_ex.o(.rev16_text), (4 bytes).
    Removing stm32g0xx_hal_pwr_ex.o(.revsh_text), (4 bytes).
    Removing stm32g0xx_hal_pwr_ex.o(i.HAL_PWREx_DisableBatteryCharging), (20 bytes).
    Removing stm32g0xx_hal_pwr_ex.o(i.HAL_PWREx_DisableFlashPowerDown), (16 bytes).
    Removing stm32g0xx_hal_pwr_ex.o(i.HAL_PWREx_DisableGPIOPullDown), (104 bytes).
    Removing stm32g0xx_hal_pwr_ex.o(i.HAL_PWREx_DisableGPIOPullUp), (104 bytes).
    Removing stm32g0xx_hal_pwr_ex.o(i.HAL_PWREx_DisableInternalWakeUpLine), (20 bytes).
    Removing stm32g0xx_hal_pwr_ex.o(i.HAL_PWREx_DisableLowPowerRunMode), (80 bytes).
    Removing stm32g0xx_hal_pwr_ex.o(i.HAL_PWREx_DisablePullUpPullDownConfig), (20 bytes).
    Removing stm32g0xx_hal_pwr_ex.o(i.HAL_PWREx_EnableBatteryCharging), (32 bytes).
    Removing stm32g0xx_hal_pwr_ex.o(i.HAL_PWREx_EnableFlashPowerDown), (16 bytes).
    Removing stm32g0xx_hal_pwr_ex.o(i.HAL_PWREx_EnableGPIOPullDown), (152 bytes).
    Removing stm32g0xx_hal_pwr_ex.o(i.HAL_PWREx_EnableGPIOPullUp), (152 bytes).
    Removing stm32g0xx_hal_pwr_ex.o(i.HAL_PWREx_EnableInternalWakeUpLine), (20 bytes).
    Removing stm32g0xx_hal_pwr_ex.o(i.HAL_PWREx_EnableLowPowerRunMode), (20 bytes).
    Removing stm32g0xx_hal_pwr_ex.o(i.HAL_PWREx_EnablePullUpPullDownConfig), (20 bytes).
    Removing stm32g0xx_hal_pwr_ex.o(i.HAL_PWREx_GetVoltageRange), (16 bytes).
    Removing stm32g0xx_hal_cortex.o(.rev16_text), (4 bytes).
    Removing stm32g0xx_hal_cortex.o(.revsh_text), (4 bytes).
    Removing stm32g0xx_hal_cortex.o(i.HAL_MPU_ConfigRegion), (88 bytes).
    Removing stm32g0xx_hal_cortex.o(i.HAL_MPU_Disable), (28 bytes).
    Removing stm32g0xx_hal_cortex.o(i.HAL_MPU_Enable), (48 bytes).
    Removing stm32g0xx_hal_cortex.o(i.HAL_NVIC_ClearPendingIRQ), (28 bytes).
    Removing stm32g0xx_hal_cortex.o(i.HAL_NVIC_DisableIRQ), (60 bytes).
    Removing stm32g0xx_hal_cortex.o(i.HAL_NVIC_GetPendingIRQ), (48 bytes).
    Removing stm32g0xx_hal_cortex.o(i.HAL_NVIC_GetPriority), (72 bytes).
    Removing stm32g0xx_hal_cortex.o(i.HAL_NVIC_SetPendingIRQ), (28 bytes).
    Removing stm32g0xx_hal_cortex.o(i.HAL_NVIC_SystemReset), (56 bytes).
    Removing stm32g0xx_hal_cortex.o(i.HAL_SYSTICK_CLKSourceConfig), (36 bytes).
    Removing stm32g0xx_hal_cortex.o(i.HAL_SYSTICK_Callback), (2 bytes).
    Removing stm32g0xx_hal_cortex.o(i.HAL_SYSTICK_IRQHandler), (8 bytes).
    Removing stm32g0xx_hal.o(.rev16_text), (4 bytes).
    Removing stm32g0xx_hal.o(.revsh_text), (4 bytes).
    Removing stm32g0xx_hal.o(i.HAL_DBGMCU_DisableDBGStandbyMode), (20 bytes).
    Removing stm32g0xx_hal.o(i.HAL_DBGMCU_DisableDBGStopMode), (20 bytes).
    Removing stm32g0xx_hal.o(i.HAL_DBGMCU_EnableDBGStandbyMode), (20 bytes).
    Removing stm32g0xx_hal.o(i.HAL_DBGMCU_EnableDBGStopMode), (20 bytes).
    Removing stm32g0xx_hal.o(i.HAL_DeInit), (52 bytes).
    Removing stm32g0xx_hal.o(i.HAL_GetDEVID), (16 bytes).
    Removing stm32g0xx_hal.o(i.HAL_GetHalVersion), (8 bytes).
    Removing stm32g0xx_hal.o(i.HAL_GetREVID), (12 bytes).
    Removing stm32g0xx_hal.o(i.HAL_GetTickFreq), (12 bytes).
    Removing stm32g0xx_hal.o(i.HAL_GetTickPrio), (12 bytes).
    Removing stm32g0xx_hal.o(i.HAL_GetUIDw0), (12 bytes).
    Removing stm32g0xx_hal.o(i.HAL_GetUIDw1), (12 bytes).
    Removing stm32g0xx_hal.o(i.HAL_GetUIDw2), (12 bytes).
    Removing stm32g0xx_hal.o(i.HAL_IncTick), (24 bytes).
    Removing stm32g0xx_hal.o(i.HAL_MspDeInit), (2 bytes).
    Removing stm32g0xx_hal.o(i.HAL_MspInit), (2 bytes).
    Removing stm32g0xx_hal.o(i.HAL_ResumeTick), (20 bytes).
    Removing stm32g0xx_hal.o(i.HAL_SYSCFG_DisableIOAnalogSwitchBooster), (20 bytes).
    Removing stm32g0xx_hal.o(i.HAL_SYSCFG_DisableRemap), (16 bytes).
    Removing stm32g0xx_hal.o(i.HAL_SYSCFG_EnableIOAnalogSwitchBooster), (20 bytes).
    Removing stm32g0xx_hal.o(i.HAL_SYSCFG_EnableRemap), (16 bytes).
    Removing stm32g0xx_hal.o(i.HAL_SYSCFG_StrobeDBattpinsConfig), (24 bytes).
    Removing stm32g0xx_hal.o(i.HAL_SetTickFreq), (44 bytes).
    Removing stm32g0xx_hal.o(i.HAL_SuspendTick), (20 bytes).
    Removing stm32g0xx_hal_exti.o(.rev16_text), (4 bytes).
    Removing stm32g0xx_hal_exti.o(.revsh_text), (4 bytes).
    Removing stm32g0xx_hal_exti.o(i.HAL_EXTI_ClearConfigLine), (160 bytes).
    Removing stm32g0xx_hal_exti.o(i.HAL_EXTI_ClearPending), (56 bytes).
    Removing stm32g0xx_hal_exti.o(i.HAL_EXTI_GenerateSWI), (40 bytes).
    Removing stm32g0xx_hal_exti.o(i.HAL_EXTI_GetConfigLine), (224 bytes).
    Removing stm32g0xx_hal_exti.o(i.HAL_EXTI_GetHandle), (16 bytes).
    Removing stm32g0xx_hal_exti.o(i.HAL_EXTI_GetPending), (64 bytes).
    Removing stm32g0xx_hal_exti.o(i.HAL_EXTI_IRQHandler), (96 bytes).
    Removing stm32g0xx_hal_exti.o(i.HAL_EXTI_RegisterCallback), (42 bytes).
    Removing stm32g0xx_hal_exti.o(i.HAL_EXTI_SetConfigLine), (260 bytes).
    Removing stm32g0xx_hal_tim.o(.rev16_text), (4 bytes).
    Removing stm32g0xx_hal_tim.o(.revsh_text), (4 bytes).
    Removing stm32g0xx_hal_tim.o(i.HAL_TIM_Base_DeInit), (80 bytes).
    Removing stm32g0xx_hal_tim.o(i.HAL_TIM_Base_GetState), (8 bytes).
    Removing stm32g0xx_hal_tim.o(i.HAL_TIM_Base_MspDeInit), (2 bytes).
    Removing stm32g0xx_hal_tim.o(i.HAL_TIM_Base_MspInit), (2 bytes).
    Removing stm32g0xx_hal_tim.o(i.HAL_TIM_Base_Start), (56 bytes).
    Removing stm32g0xx_hal_tim.o(i.HAL_TIM_Base_Start_DMA), (148 bytes).
    Removing stm32g0xx_hal_tim.o(i.HAL_TIM_Base_Stop), (64 bytes).
    Removing stm32g0xx_hal_tim.o(i.HAL_TIM_Base_Stop_DMA), (80 bytes).
    Removing stm32g0xx_hal_tim.o(i.HAL_TIM_Base_Stop_IT), (64 bytes).
    Removing stm32g0xx_hal_tim.o(i.HAL_TIM_ConfigOCrefClear), (420 bytes).
    Removing stm32g0xx_hal_tim.o(i.HAL_TIM_ConfigTI1Input), (32 bytes).
    Removing stm32g0xx_hal_tim.o(i.HAL_TIM_DMABurst_ReadStart), (520 bytes).
    Removing stm32g0xx_hal_tim.o(i.HAL_TIM_DMABurst_ReadStop), (166 bytes).
    Removing stm32g0xx_hal_tim.o(i.HAL_TIM_DMABurst_WriteStart), (520 bytes).
    Removing stm32g0xx_hal_tim.o(i.HAL_TIM_DMABurst_WriteStop), (166 bytes).
    Removing stm32g0xx_hal_tim.o(i.HAL_TIM_Encoder_DeInit), (80 bytes).
    Removing stm32g0xx_hal_tim.o(i.HAL_TIM_Encoder_GetState), (8 bytes).
    Removing stm32g0xx_hal_tim.o(i.HAL_TIM_Encoder_Init), (192 bytes).
    Removing stm32g0xx_hal_tim.o(i.HAL_TIM_Encoder_MspDeInit), (2 bytes).
    Removing stm32g0xx_hal_tim.o(i.HAL_TIM_Encoder_MspInit), (2 bytes).
    Removing stm32g0xx_hal_tim.o(i.HAL_TIM_Encoder_Start), (80 bytes).
    Removing stm32g0xx_hal_tim.o(i.HAL_TIM_Encoder_Start_DMA), (396 bytes).
    Removing stm32g0xx_hal_tim.o(i.HAL_TIM_Encoder_Start_IT), (128 bytes).
    Removing stm32g0xx_hal_tim.o(i.HAL_TIM_Encoder_Stop), (112 bytes).
    Removing stm32g0xx_hal_tim.o(i.HAL_TIM_Encoder_Stop_DMA), (192 bytes).
    Removing stm32g0xx_hal_tim.o(i.HAL_TIM_Encoder_Stop_IT), (160 bytes).
    Removing stm32g0xx_hal_tim.o(i.HAL_TIM_ErrorCallback), (2 bytes).
    Removing stm32g0xx_hal_tim.o(i.HAL_TIM_GenerateEvent), (54 bytes).
    Removing stm32g0xx_hal_tim.o(i.HAL_TIM_IC_CaptureHalfCpltCallback), (2 bytes).
    Removing stm32g0xx_hal_tim.o(i.HAL_TIM_IC_ConfigChannel), (226 bytes).
    Removing stm32g0xx_hal_tim.o(i.HAL_TIM_IC_DeInit), (80 bytes).
    Removing stm32g0xx_hal_tim.o(i.HAL_TIM_IC_GetState), (8 bytes).
    Removing stm32g0xx_hal_tim.o(i.HAL_TIM_IC_Init), (56 bytes).
    Removing stm32g0xx_hal_tim.o(i.HAL_TIM_IC_MspDeInit), (2 bytes).
    Removing stm32g0xx_hal_tim.o(i.HAL_TIM_IC_MspInit), (2 bytes).
    Removing stm32g0xx_hal_tim.o(i.HAL_TIM_IC_Start), (56 bytes).
    Removing stm32g0xx_hal_tim.o(i.HAL_TIM_IC_Start_DMA), (368 bytes).
    Removing stm32g0xx_hal_tim.o(i.HAL_TIM_IC_Start_IT), (132 bytes).
    Removing stm32g0xx_hal_tim.o(i.HAL_TIM_IC_Stop), (64 bytes).
    Removing stm32g0xx_hal_tim.o(i.HAL_TIM_IC_Stop_DMA), (180 bytes).
    Removing stm32g0xx_hal_tim.o(i.HAL_TIM_IC_Stop_IT), (144 bytes).
    Removing stm32g0xx_hal_tim.o(i.HAL_TIM_OC_ConfigChannel), (150 bytes).
    Removing stm32g0xx_hal_tim.o(i.HAL_TIM_OC_DeInit), (80 bytes).
    Removing stm32g0xx_hal_tim.o(i.HAL_TIM_OC_GetState), (8 bytes).
    Removing stm32g0xx_hal_tim.o(i.HAL_TIM_OC_Init), (56 bytes).
    Removing stm32g0xx_hal_tim.o(i.HAL_TIM_OC_MspDeInit), (2 bytes).
    Removing stm32g0xx_hal_tim.o(i.HAL_TIM_OC_MspInit), (2 bytes).
    Removing stm32g0xx_hal_tim.o(i.HAL_TIM_OC_Start), (128 bytes).
    Removing stm32g0xx_hal_tim.o(i.HAL_TIM_OC_Start_DMA), (440 bytes).
    Removing stm32g0xx_hal_tim.o(i.HAL_TIM_OC_Start_IT), (204 bytes).
    Removing stm32g0xx_hal_tim.o(i.HAL_TIM_OC_Stop), (164 bytes).
    Removing stm32g0xx_hal_tim.o(i.HAL_TIM_OC_Stop_DMA), (280 bytes).
    Removing stm32g0xx_hal_tim.o(i.HAL_TIM_OC_Stop_IT), (244 bytes).
    Removing stm32g0xx_hal_tim.o(i.HAL_TIM_OnePulse_ConfigChannel), (308 bytes).
    Removing stm32g0xx_hal_tim.o(i.HAL_TIM_OnePulse_DeInit), (80 bytes).
    Removing stm32g0xx_hal_tim.o(i.HAL_TIM_OnePulse_GetState), (8 bytes).
    Removing stm32g0xx_hal_tim.o(i.HAL_TIM_OnePulse_Init), (80 bytes).
    Removing stm32g0xx_hal_tim.o(i.HAL_TIM_OnePulse_MspDeInit), (2 bytes).
    Removing stm32g0xx_hal_tim.o(i.HAL_TIM_OnePulse_MspInit), (2 bytes).
    Removing stm32g0xx_hal_tim.o(i.HAL_TIM_OnePulse_Start), (104 bytes).
    Removing stm32g0xx_hal_tim.o(i.HAL_TIM_OnePulse_Start_IT), (128 bytes).
    Removing stm32g0xx_hal_tim.o(i.HAL_TIM_OnePulse_Stop), (176 bytes).
    Removing stm32g0xx_hal_tim.o(i.HAL_TIM_OnePulse_Stop_IT), (200 bytes).
    Removing stm32g0xx_hal_tim.o(i.HAL_TIM_PWM_ConfigChannel), (386 bytes).
    Removing stm32g0xx_hal_tim.o(i.HAL_TIM_PWM_DeInit), (80 bytes).
    Removing stm32g0xx_hal_tim.o(i.HAL_TIM_PWM_GetState), (8 bytes).
    Removing stm32g0xx_hal_tim.o(i.HAL_TIM_PWM_Init), (56 bytes).
    Removing stm32g0xx_hal_tim.o(i.HAL_TIM_PWM_MspDeInit), (2 bytes).
    Removing stm32g0xx_hal_tim.o(i.HAL_TIM_PWM_MspInit), (2 bytes).
    Removing stm32g0xx_hal_tim.o(i.HAL_TIM_PWM_PulseFinishedHalfCpltCallback), (2 bytes).
    Removing stm32g0xx_hal_tim.o(i.HAL_TIM_PWM_Start), (128 bytes).
    Removing stm32g0xx_hal_tim.o(i.HAL_TIM_PWM_Start_DMA), (440 bytes).
    Removing stm32g0xx_hal_tim.o(i.HAL_TIM_PWM_Start_IT), (204 bytes).
    Removing stm32g0xx_hal_tim.o(i.HAL_TIM_PWM_Stop), (172 bytes).
    Removing stm32g0xx_hal_tim.o(i.HAL_TIM_PWM_Stop_DMA), (280 bytes).
    Removing stm32g0xx_hal_tim.o(i.HAL_TIM_PWM_Stop_IT), (244 bytes).
    Removing stm32g0xx_hal_tim.o(i.HAL_TIM_PeriodElapsedCallback), (2 bytes).
    Removing stm32g0xx_hal_tim.o(i.HAL_TIM_PeriodElapsedHalfCpltCallback), (2 bytes).
    Removing stm32g0xx_hal_tim.o(i.HAL_TIM_ReadCapturedValue), (52 bytes).
    Removing stm32g0xx_hal_tim.o(i.HAL_TIM_SlaveConfigSynchro), (112 bytes).
    Removing stm32g0xx_hal_tim.o(i.HAL_TIM_SlaveConfigSynchro_IT), (112 bytes).
    Removing stm32g0xx_hal_tim.o(i.HAL_TIM_TriggerHalfCpltCallback), (2 bytes).
    Removing stm32g0xx_hal_tim.o(i.TIM_CCxChannelCmd), (34 bytes).
    Removing stm32g0xx_hal_tim.o(i.TIM_DMACaptureCplt), (70 bytes).
    Removing stm32g0xx_hal_tim.o(i.TIM_DMACaptureHalfCplt), (70 bytes).
    Removing stm32g0xx_hal_tim.o(i.TIM_DMADelayPulseCplt), (70 bytes).
    Removing stm32g0xx_hal_tim.o(i.TIM_DMADelayPulseHalfCplt), (70 bytes).
    Removing stm32g0xx_hal_tim.o(i.TIM_DMAError), (20 bytes).
    Removing stm32g0xx_hal_tim.o(i.TIM_DMAPeriodElapsedCplt), (20 bytes).
    Removing stm32g0xx_hal_tim.o(i.TIM_DMAPeriodElapsedHalfCplt), (20 bytes).
    Removing stm32g0xx_hal_tim.o(i.TIM_DMATriggerCplt), (20 bytes).
    Removing stm32g0xx_hal_tim.o(i.TIM_DMATriggerHalfCplt), (20 bytes).
    Removing stm32g0xx_hal_tim.o(i.TIM_OC1_SetConfig), (176 bytes).
    Removing stm32g0xx_hal_tim.o(i.TIM_OC2_SetConfig), (192 bytes).
    Removing stm32g0xx_hal_tim.o(i.TIM_OC3_SetConfig), (188 bytes).
    Removing stm32g0xx_hal_tim.o(i.TIM_OC4_SetConfig), (128 bytes).
    Removing stm32g0xx_hal_tim.o(i.TIM_OC5_SetConfig), (112 bytes).
    Removing stm32g0xx_hal_tim.o(i.TIM_OC6_SetConfig), (116 bytes).
    Removing stm32g0xx_hal_tim.o(i.TIM_SlaveTimer_SetConfig), (180 bytes).
    Removing stm32g0xx_hal_tim.o(i.TIM_TI1_SetConfig), (108 bytes).
    Removing stm32g0xx_hal_tim.o(i.TIM_TI2_SetConfig), (72 bytes).
    Removing stm32g0xx_hal_tim.o(i.TIM_TI3_SetConfig), (70 bytes).
    Removing stm32g0xx_hal_tim.o(i.TIM_TI4_SetConfig), (78 bytes).
    Removing stm32g0xx_hal_tim_ex.o(.rev16_text), (4 bytes).
    Removing stm32g0xx_hal_tim_ex.o(.revsh_text), (4 bytes).
    Removing stm32g0xx_hal_tim_ex.o(i.HAL_TIMEx_CommutHalfCpltCallback), (2 bytes).
    Removing stm32g0xx_hal_tim_ex.o(i.HAL_TIMEx_ConfigBreakInput), (172 bytes).
    Removing stm32g0xx_hal_tim_ex.o(i.HAL_TIMEx_ConfigCommutEvent), (144 bytes).
    Removing stm32g0xx_hal_tim_ex.o(i.HAL_TIMEx_ConfigCommutEvent_DMA), (172 bytes).
    Removing stm32g0xx_hal_tim_ex.o(i.HAL_TIMEx_ConfigCommutEvent_IT), (144 bytes).
    Removing stm32g0xx_hal_tim_ex.o(i.HAL_TIMEx_DisarmBreakInput), (104 bytes).
    Removing stm32g0xx_hal_tim_ex.o(i.HAL_TIMEx_GroupChannel5), (72 bytes).
    Removing stm32g0xx_hal_tim_ex.o(i.HAL_TIMEx_HallSensor_DeInit), (80 bytes).
    Removing stm32g0xx_hal_tim_ex.o(i.HAL_TIMEx_HallSensor_GetState), (8 bytes).
    Removing stm32g0xx_hal_tim_ex.o(i.HAL_TIMEx_HallSensor_Init), (220 bytes).
    Removing stm32g0xx_hal_tim_ex.o(i.HAL_TIMEx_HallSensor_MspDeInit), (2 bytes).
    Removing stm32g0xx_hal_tim_ex.o(i.HAL_TIMEx_HallSensor_MspInit), (2 bytes).
    Removing stm32g0xx_hal_tim_ex.o(i.HAL_TIMEx_HallSensor_Start), (56 bytes).
    Removing stm32g0xx_hal_tim_ex.o(i.HAL_TIMEx_HallSensor_Start_DMA), (160 bytes).
    Removing stm32g0xx_hal_tim_ex.o(i.HAL_TIMEx_HallSensor_Start_IT), (68 bytes).
    Removing stm32g0xx_hal_tim_ex.o(i.HAL_TIMEx_HallSensor_Stop), (64 bytes).
    Removing stm32g0xx_hal_tim_ex.o(i.HAL_TIMEx_HallSensor_Stop_DMA), (84 bytes).
    Removing stm32g0xx_hal_tim_ex.o(i.HAL_TIMEx_HallSensor_Stop_IT), (76 bytes).
    Removing stm32g0xx_hal_tim_ex.o(i.HAL_TIMEx_OCN_Start), (72 bytes).
    Removing stm32g0xx_hal_tim_ex.o(i.HAL_TIMEx_OCN_Start_DMA), (316 bytes).
    Removing stm32g0xx_hal_tim_ex.o(i.HAL_TIMEx_OCN_Start_IT), (140 bytes).
    Removing stm32g0xx_hal_tim_ex.o(i.HAL_TIMEx_OCN_Stop), (108 bytes).
    Removing stm32g0xx_hal_tim_ex.o(i.HAL_TIMEx_OCN_Stop_DMA), (196 bytes).
    Removing stm32g0xx_hal_tim_ex.o(i.HAL_TIMEx_OCN_Stop_IT), (196 bytes).
    Removing stm32g0xx_hal_tim_ex.o(i.HAL_TIMEx_OnePulseN_Start), (34 bytes).
    Removing stm32g0xx_hal_tim_ex.o(i.HAL_TIMEx_OnePulseN_Start_IT), (58 bytes).
    Removing stm32g0xx_hal_tim_ex.o(i.HAL_TIMEx_OnePulseN_Stop), (108 bytes).
    Removing stm32g0xx_hal_tim_ex.o(i.HAL_TIMEx_OnePulseN_Stop_IT), (132 bytes).
    Removing stm32g0xx_hal_tim_ex.o(i.HAL_TIMEx_PWMN_Start), (72 bytes).
    Removing stm32g0xx_hal_tim_ex.o(i.HAL_TIMEx_PWMN_Start_DMA), (316 bytes).
    Removing stm32g0xx_hal_tim_ex.o(i.HAL_TIMEx_PWMN_Start_IT), (140 bytes).
    Removing stm32g0xx_hal_tim_ex.o(i.HAL_TIMEx_PWMN_Stop), (108 bytes).
    Removing stm32g0xx_hal_tim_ex.o(i.HAL_TIMEx_PWMN_Stop_DMA), (196 bytes).
    Removing stm32g0xx_hal_tim_ex.o(i.HAL_TIMEx_PWMN_Stop_IT), (196 bytes).
    Removing stm32g0xx_hal_tim_ex.o(i.HAL_TIMEx_ReArmBreakInput), (136 bytes).
    Removing stm32g0xx_hal_tim_ex.o(i.HAL_TIMEx_RemapConfig), (54 bytes).
    Removing stm32g0xx_hal_tim_ex.o(i.HAL_TIMEx_TISelection), (92 bytes).
    Removing stm32g0xx_hal_tim_ex.o(i.TIMEx_DMACommutationCplt), (20 bytes).
    Removing stm32g0xx_hal_tim_ex.o(i.TIMEx_DMACommutationHalfCplt), (20 bytes).
    Removing stm32g0xx_hal_tim_ex.o(i.TIM_CCxNChannelCmd), (34 bytes).
    Removing stm32g0xx_hal_uart.o(.rev16_text), (4 bytes).
    Removing stm32g0xx_hal_uart.o(.revsh_text), (4 bytes).
    Removing stm32g0xx_hal_uart.o(i.HAL_HalfDuplex_EnableReceiver), (74 bytes).
    Removing stm32g0xx_hal_uart.o(i.HAL_HalfDuplex_EnableTransmitter), (74 bytes).
    Removing stm32g0xx_hal_uart.o(i.HAL_HalfDuplex_Init), (132 bytes).
    Removing stm32g0xx_hal_uart.o(i.HAL_LIN_Init), (174 bytes).
    Removing stm32g0xx_hal_uart.o(i.HAL_LIN_SendBreak), (62 bytes).
    Removing stm32g0xx_hal_uart.o(i.HAL_MultiProcessor_DisableMuteMode), (60 bytes).
    Removing stm32g0xx_hal_uart.o(i.HAL_MultiProcessor_EnableMuteMode), (60 bytes).
    Removing stm32g0xx_hal_uart.o(i.HAL_MultiProcessor_EnterMuteMode), (14 bytes).
    Removing stm32g0xx_hal_uart.o(i.HAL_MultiProcessor_Init), (164 bytes).
    Removing stm32g0xx_hal_uart.o(i.HAL_UART_Abort), (232 bytes).
    Removing stm32g0xx_hal_uart.o(i.HAL_UART_AbortCpltCallback), (2 bytes).
    Removing stm32g0xx_hal_uart.o(i.HAL_UART_AbortReceive), (132 bytes).
    Removing stm32g0xx_hal_uart.o(i.HAL_UART_AbortReceiveCpltCallback), (2 bytes).
    Removing stm32g0xx_hal_uart.o(i.HAL_UART_AbortReceive_IT), (164 bytes).
    Removing stm32g0xx_hal_uart.o(i.HAL_UART_AbortTransmit), (132 bytes).
    Removing stm32g0xx_hal_uart.o(i.HAL_UART_AbortTransmitCpltCallback), (2 bytes).
    Removing stm32g0xx_hal_uart.o(i.HAL_UART_AbortTransmit_IT), (160 bytes).
    Removing stm32g0xx_hal_uart.o(i.HAL_UART_Abort_IT), (288 bytes).
    Removing stm32g0xx_hal_uart.o(i.HAL_UART_DMAPause), (126 bytes).
    Removing stm32g0xx_hal_uart.o(i.HAL_UART_DMAResume), (110 bytes).
    Removing stm32g0xx_hal_uart.o(i.HAL_UART_DeInit), (76 bytes).
    Removing stm32g0xx_hal_uart.o(i.HAL_UART_GetError), (8 bytes).
    Removing stm32g0xx_hal_uart.o(i.HAL_UART_GetState), (16 bytes).
    Removing stm32g0xx_hal_uart.o(i.HAL_UART_MspDeInit), (2 bytes).
    Removing stm32g0xx_hal_uart.o(i.HAL_UART_MspInit), (2 bytes).
    Removing stm32g0xx_hal_uart.o(i.HAL_UART_Receive), (360 bytes).
    Removing stm32g0xx_hal_uart.o(i.HAL_UART_Receive_IT), (376 bytes).
    Removing stm32g0xx_hal_uart.o(i.HAL_UART_Transmit), (264 bytes).
    Removing stm32g0xx_hal_uart.o(i.HAL_UART_Transmit_IT), (232 bytes).
    Removing stm32g0xx_hal_uart.o(i.UART_DMARxAbortCallback), (80 bytes).
    Removing stm32g0xx_hal_uart.o(i.UART_DMARxOnlyAbortCallback), (44 bytes).
    Removing stm32g0xx_hal_uart.o(i.UART_DMATxAbortCallback), (90 bytes).
    Removing stm32g0xx_hal_uart.o(i.UART_DMATxOnlyAbortCallback), (48 bytes).
    Removing stm32g0xx_hal_uart.o(i.UART_RxISR_16BIT), (112 bytes).
    Removing stm32g0xx_hal_uart.o(i.UART_RxISR_16BIT_FIFOEN), (188 bytes).
    Removing stm32g0xx_hal_uart.o(i.UART_RxISR_8BIT), (112 bytes).
    Removing stm32g0xx_hal_uart.o(i.UART_RxISR_8BIT_FIFOEN), (184 bytes).
    Removing stm32g0xx_hal_uart.o(i.UART_TxISR_16BIT), (74 bytes).
    Removing stm32g0xx_hal_uart.o(i.UART_TxISR_16BIT_FIFOEN), (106 bytes).
    Removing stm32g0xx_hal_uart.o(i.UART_TxISR_8BIT), (70 bytes).
    Removing stm32g0xx_hal_uart.o(i.UART_TxISR_8BIT_FIFOEN), (100 bytes).
    Removing stm32g0xx_hal_uart_ex.o(.rev16_text), (4 bytes).
    Removing stm32g0xx_hal_uart_ex.o(.revsh_text), (4 bytes).
    Removing stm32g0xx_hal_uart_ex.o(i.HAL_MultiProcessorEx_AddressLength_Set), (66 bytes).
    Removing stm32g0xx_hal_uart_ex.o(i.HAL_RS485Ex_Init), (160 bytes).
    Removing stm32g0xx_hal_uart_ex.o(i.HAL_UARTEx_DisableStopMode), (50 bytes).
    Removing stm32g0xx_hal_uart_ex.o(i.HAL_UARTEx_EnableFifoMode), (86 bytes).
    Removing stm32g0xx_hal_uart_ex.o(i.HAL_UARTEx_EnableStopMode), (50 bytes).
    Removing stm32g0xx_hal_uart_ex.o(i.HAL_UARTEx_StopModeWakeUpSourceConfig), (152 bytes).
    Removing stm32g0xx_hal_uart_ex.o(i.UARTEx_Wakeup_AddressConfig), (42 bytes).
    Removing stm32g0xx_hal_iwdg.o(.rev16_text), (4 bytes).
    Removing stm32g0xx_hal_iwdg.o(.revsh_text), (4 bytes).
    Removing stm32g0xx_hal_iwdg.o(i.HAL_IWDG_Refresh), (16 bytes).
    Removing system_stm32g0xx.o(.rev16_text), (4 bytes).
    Removing system_stm32g0xx.o(.revsh_text), (4 bytes).
    Removing system_stm32g0xx.o(i.SystemCoreClockUpdate), (236 bytes).

531 unused section(s) (total 39424 bytes) removed from the image.

==============================================================================

Image Symbol Table

    Local Symbols

    Symbol Name                              Value     Ov Type        Size  Object(Section)

    ../Drivers/STM32G0xx_HAL_Driver/Src/stm32g0xx_hal.c 0x00000000   Number         0  stm32g0xx_hal.o ABSOLUTE
    ../Drivers/STM32G0xx_HAL_Driver/Src/stm32g0xx_hal_adc.c 0x00000000   Number         0  stm32g0xx_hal_adc.o ABSOLUTE
    ../Drivers/STM32G0xx_HAL_Driver/Src/stm32g0xx_hal_adc_ex.c 0x00000000   Number         0  stm32g0xx_hal_adc_ex.o ABSOLUTE
    ../Drivers/STM32G0xx_HAL_Driver/Src/stm32g0xx_hal_cortex.c 0x00000000   Number         0  stm32g0xx_hal_cortex.o ABSOLUTE
    ../Drivers/STM32G0xx_HAL_Driver/Src/stm32g0xx_hal_dma.c 0x00000000   Number         0  stm32g0xx_hal_dma.o ABSOLUTE
    ../Drivers/STM32G0xx_HAL_Driver/Src/stm32g0xx_hal_dma_ex.c 0x00000000   Number         0  stm32g0xx_hal_dma_ex.o ABSOLUTE
    ../Drivers/STM32G0xx_HAL_Driver/Src/stm32g0xx_hal_exti.c 0x00000000   Number         0  stm32g0xx_hal_exti.o ABSOLUTE
    ../Drivers/STM32G0xx_HAL_Driver/Src/stm32g0xx_hal_flash.c 0x00000000   Number         0  stm32g0xx_hal_flash.o ABSOLUTE
    ../Drivers/STM32G0xx_HAL_Driver/Src/stm32g0xx_hal_flash_ex.c 0x00000000   Number         0  stm32g0xx_hal_flash_ex.o ABSOLUTE
    ../Drivers/STM32G0xx_HAL_Driver/Src/stm32g0xx_hal_gpio.c 0x00000000   Number         0  stm32g0xx_hal_gpio.o ABSOLUTE
    ../Drivers/STM32G0xx_HAL_Driver/Src/stm32g0xx_hal_pwr.c 0x00000000   Number         0  stm32g0xx_hal_pwr.o ABSOLUTE
    ../Drivers/STM32G0xx_HAL_Driver/Src/stm32g0xx_hal_pwr_ex.c 0x00000000   Number         0  stm32g0xx_hal_pwr_ex.o ABSOLUTE
    ../Drivers/STM32G0xx_HAL_Driver/Src/stm32g0xx_hal_rcc.c 0x00000000   Number         0  stm32g0xx_hal_rcc.o ABSOLUTE
    ../Drivers/STM32G0xx_HAL_Driver/Src/stm32g0xx_hal_rcc_ex.c 0x00000000   Number         0  stm32g0xx_hal_rcc_ex.o ABSOLUTE
    ../Drivers/STM32G0xx_HAL_Driver/Src/stm32g0xx_hal_tim.c 0x00000000   Number         0  stm32g0xx_hal_tim.o ABSOLUTE
    ../Drivers/STM32G0xx_HAL_Driver/Src/stm32g0xx_hal_tim_ex.c 0x00000000   Number         0  stm32g0xx_hal_tim_ex.o ABSOLUTE
    ../Drivers/STM32G0xx_HAL_Driver/Src/stm32g0xx_hal_uart.c 0x00000000   Number         0  stm32g0xx_hal_uart.o ABSOLUTE
    ../Drivers/STM32G0xx_HAL_Driver/Src/stm32g0xx_hal_uart_ex.c 0x00000000   Number         0  stm32g0xx_hal_uart_ex.o ABSOLUTE
    ../Drivers/STM32G0xx_HAL_Driver/Src/stm32g0xx_ll_adc.c 0x00000000   Number         0  stm32g0xx_ll_adc.o ABSOLUTE
    ../Drivers/STM32G0xx_HAL_Driver/Src/stm32g0xx_ll_rcc.c 0x00000000   Number         0  stm32g0xx_ll_rcc.o ABSOLUTE
    ../Src/main.c                            0x00000000   Number         0  main.o ABSOLUTE
    ../Src/stm32g0xx_hal_msp.c               0x00000000   Number         0  stm32g0xx_hal_msp.o ABSOLUTE
    ../Src/stm32g0xx_it.c                    0x00000000   Number         0  stm32g0xx_it.o ABSOLUTE
    ../Src/system_stm32g0xx.c                0x00000000   Number         0  system_stm32g0xx.o ABSOLUTE
    ../clib/../cmprslib/zerorunl2.c          0x00000000   Number         0  __dczerorl2.o ABSOLUTE
    ../clib/microlib/division.c              0x00000000   Number         0  uidiv.o ABSOLUTE
    ../clib/microlib/division.c              0x00000000   Number         0  idiv.o ABSOLUTE
    ../clib/microlib/division.c              0x00000000   Number         0  uldiv.o ABSOLUTE
    ../clib/microlib/init/entry.s            0x00000000   Number         0  entry10a.o ABSOLUTE
    ../clib/microlib/init/entry.s            0x00000000   Number         0  entry10b.o ABSOLUTE
    ../clib/microlib/init/entry.s            0x00000000   Number         0  entry9a.o ABSOLUTE
    ../clib/microlib/init/entry.s            0x00000000   Number         0  entry.o ABSOLUTE
    ../clib/microlib/init/entry.s            0x00000000   Number         0  entry5.o ABSOLUTE
    ../clib/microlib/init/entry.s            0x00000000   Number         0  entry7a.o ABSOLUTE
    ../clib/microlib/init/entry.s            0x00000000   Number         0  entry7b.o ABSOLUTE
    ../clib/microlib/init/entry.s            0x00000000   Number         0  entry8a.o ABSOLUTE
    ../clib/microlib/init/entry.s            0x00000000   Number         0  entry2.o ABSOLUTE
    ../clib/microlib/init/entry.s            0x00000000   Number         0  entry8b.o ABSOLUTE
    ../clib/microlib/init/entry.s            0x00000000   Number         0  entry11b.o ABSOLUTE
    ../clib/microlib/init/entry.s            0x00000000   Number         0  entry9b.o ABSOLUTE
    ../clib/microlib/init/entry.s            0x00000000   Number         0  entry11a.o ABSOLUTE
    ../clib/microlib/longlong.c              0x00000000   Number         0  llushr.o ABSOLUTE
    ../clib/microlib/longlong.c              0x00000000   Number         0  llshl.o ABSOLUTE
    ../clib/microlib/string/memcpy.c         0x00000000   Number         0  memcpya.o ABSOLUTE
    ../clib/microlib/string/memcpy.c         0x00000000   Number         0  memcpyb.o ABSOLUTE
    ../clib/microlib/string/memset.c         0x00000000   Number         0  memseta.o ABSOLUTE
    ../clib/microlib/string/strcat.c         0x00000000   Number         0  strcat.o ABSOLUTE
    ../clib/microlib/string/strcmp.c         0x00000000   Number         0  strcmp.o ABSOLUTE
    ../clib/microlib/string/strcpy.c         0x00000000   Number         0  strcpy.o ABSOLUTE
    ../clib/microlib/string/strlen.c         0x00000000   Number         0  strlen.o ABSOLUTE
    ../clib/microlib/string/strncmp.c        0x00000000   Number         0  strncmp.o ABSOLUTE
    ../clib/microlib/string/strncpy.c        0x00000000   Number         0  strncpy.o ABSOLUTE
    ..\APP\adc.c                             0x00000000   Number         0  adc_1.o ABSOLUTE
    ..\APP\common.c                          0x00000000   Number         0  common.o ABSOLUTE
    ..\APP\dma.c                             0x00000000   Number         0  dma_1.o ABSOLUTE
    ..\APP\inflash.c                         0x00000000   Number         0  inflash.o ABSOLUTE
    ..\APP\iwdg.c                            0x00000000   Number         0  iwdg.o ABSOLUTE
    ..\APP\led.c                             0x00000000   Number         0  led.o ABSOLUTE
    ..\APP\modbus_asc.c                      0x00000000   Number         0  modbus_asc.o ABSOLUTE
    ..\APP\modbus_ascii.c                    0x00000000   Number         0  modbus_ascii.o ABSOLUTE
    ..\APP\para.c                            0x00000000   Number         0  para.o ABSOLUTE
    ..\APP\system.c                          0x00000000   Number         0  system.o ABSOLUTE
    ..\APP\task.c                            0x00000000   Number         0  task.o ABSOLUTE
    ..\APP\tim.c                             0x00000000   Number         0  tim_1.o ABSOLUTE
    ..\APP\usart.c                           0x00000000   Number         0  usart_1.o ABSOLUTE
    ..\Drivers\STM32G0xx_HAL_Driver\Src\stm32g0xx_hal.c 0x00000000   Number         0  stm32g0xx_hal.o ABSOLUTE
    ..\Drivers\STM32G0xx_HAL_Driver\Src\stm32g0xx_hal_adc.c 0x00000000   Number         0  stm32g0xx_hal_adc.o ABSOLUTE
    ..\Drivers\STM32G0xx_HAL_Driver\Src\stm32g0xx_hal_adc_ex.c 0x00000000   Number         0  stm32g0xx_hal_adc_ex.o ABSOLUTE
    ..\Drivers\STM32G0xx_HAL_Driver\Src\stm32g0xx_hal_cortex.c 0x00000000   Number         0  stm32g0xx_hal_cortex.o ABSOLUTE
    ..\Drivers\STM32G0xx_HAL_Driver\Src\stm32g0xx_hal_dma.c 0x00000000   Number         0  stm32g0xx_hal_dma.o ABSOLUTE
    ..\Drivers\STM32G0xx_HAL_Driver\Src\stm32g0xx_hal_dma_ex.c 0x00000000   Number         0  stm32g0xx_hal_dma_ex.o ABSOLUTE
    ..\Drivers\STM32G0xx_HAL_Driver\Src\stm32g0xx_hal_exti.c 0x00000000   Number         0  stm32g0xx_hal_exti.o ABSOLUTE
    ..\Drivers\STM32G0xx_HAL_Driver\Src\stm32g0xx_hal_flash.c 0x00000000   Number         0  stm32g0xx_hal_flash.o ABSOLUTE
    ..\Drivers\STM32G0xx_HAL_Driver\Src\stm32g0xx_hal_flash_ex.c 0x00000000   Number         0  stm32g0xx_hal_flash_ex.o ABSOLUTE
    ..\Drivers\STM32G0xx_HAL_Driver\Src\stm32g0xx_hal_gpio.c 0x00000000   Number         0  stm32g0xx_hal_gpio.o ABSOLUTE
    ..\Drivers\STM32G0xx_HAL_Driver\Src\stm32g0xx_hal_iwdg.c 0x00000000   Number         0  stm32g0xx_hal_iwdg.o ABSOLUTE
    ..\Drivers\STM32G0xx_HAL_Driver\Src\stm32g0xx_hal_pwr.c 0x00000000   Number         0  stm32g0xx_hal_pwr.o ABSOLUTE
    ..\Drivers\STM32G0xx_HAL_Driver\Src\stm32g0xx_hal_pwr_ex.c 0x00000000   Number         0  stm32g0xx_hal_pwr_ex.o ABSOLUTE
    ..\Drivers\STM32G0xx_HAL_Driver\Src\stm32g0xx_hal_rcc.c 0x00000000   Number         0  stm32g0xx_hal_rcc.o ABSOLUTE
    ..\Drivers\STM32G0xx_HAL_Driver\Src\stm32g0xx_hal_rcc_ex.c 0x00000000   Number         0  stm32g0xx_hal_rcc_ex.o ABSOLUTE
    ..\Drivers\STM32G0xx_HAL_Driver\Src\stm32g0xx_hal_tim.c 0x00000000   Number         0  stm32g0xx_hal_tim.o ABSOLUTE
    ..\Drivers\STM32G0xx_HAL_Driver\Src\stm32g0xx_hal_tim_ex.c 0x00000000   Number         0  stm32g0xx_hal_tim_ex.o ABSOLUTE
    ..\Drivers\STM32G0xx_HAL_Driver\Src\stm32g0xx_hal_uart.c 0x00000000   Number         0  stm32g0xx_hal_uart.o ABSOLUTE
    ..\Drivers\STM32G0xx_HAL_Driver\Src\stm32g0xx_hal_uart_ex.c 0x00000000   Number         0  stm32g0xx_hal_uart_ex.o ABSOLUTE
    ..\RT-Thread\components\finsh\cmd.c      0x00000000   Number         0  cmd.o ABSOLUTE
    ..\RT-Thread\components\finsh\msh.c      0x00000000   Number         0  msh.o ABSOLUTE
    ..\RT-Thread\components\finsh\shell.c    0x00000000   Number         0  shell.o ABSOLUTE
    ..\RT-Thread\libcpu\arm\cortex-m0\context_rvds.S 0x00000000   Number         0  context_rvds.o ABSOLUTE
    ..\RT-Thread\libcpu\arm\cortex-m0\cpuport.c 0x00000000   Number         0  cpuport.o ABSOLUTE
    ..\RT-Thread\src\clock.c                 0x00000000   Number         0  clock.o ABSOLUTE
    ..\RT-Thread\src\components.c            0x00000000   Number         0  components.o ABSOLUTE
    ..\RT-Thread\src\cpu.c                   0x00000000   Number         0  cpu.o ABSOLUTE
    ..\RT-Thread\src\idle.c                  0x00000000   Number         0  idle.o ABSOLUTE
    ..\RT-Thread\src\ipc.c                   0x00000000   Number         0  ipc.o ABSOLUTE
    ..\RT-Thread\src\irq.c                   0x00000000   Number         0  irq.o ABSOLUTE
    ..\RT-Thread\src\kservice.c              0x00000000   Number         0  kservice.o ABSOLUTE
    ..\RT-Thread\src\mem.c                   0x00000000   Number         0  mem.o ABSOLUTE
    ..\RT-Thread\src\memheap.c               0x00000000   Number         0  memheap.o ABSOLUTE
    ..\RT-Thread\src\mempool.c               0x00000000   Number         0  mempool.o ABSOLUTE
    ..\RT-Thread\src\object.c                0x00000000   Number         0  object.o ABSOLUTE
    ..\RT-Thread\src\scheduler.c             0x00000000   Number         0  scheduler.o ABSOLUTE
    ..\RT-Thread\src\slab.c                  0x00000000   Number         0  slab.o ABSOLUTE
    ..\RT-Thread\src\thread.c                0x00000000   Number         0  thread.o ABSOLUTE
    ..\RT-Thread\src\timer.c                 0x00000000   Number         0  timer.o ABSOLUTE
    ..\Src\board.c                           0x00000000   Number         0  board.o ABSOLUTE
    ..\Src\main.c                            0x00000000   Number         0  main.o ABSOLUTE
    ..\Src\stm32g0xx_hal_msp.c               0x00000000   Number         0  stm32g0xx_hal_msp.o ABSOLUTE
    ..\Src\stm32g0xx_it.c                    0x00000000   Number         0  stm32g0xx_it.o ABSOLUTE
    ..\Src\system_clock.c                    0x00000000   Number         0  system_clock.o ABSOLUTE
    ..\Src\system_stm32g0xx.c                0x00000000   Number         0  system_stm32g0xx.o ABSOLUTE
    ..\\APP\\adc.c                           0x00000000   Number         0  adc_1.o ABSOLUTE
    ..\\APP\\common.c                        0x00000000   Number         0  common.o ABSOLUTE
    ..\\APP\\dma.c                           0x00000000   Number         0  dma_1.o ABSOLUTE
    ..\\APP\\inflash.c                       0x00000000   Number         0  inflash.o ABSOLUTE
    ..\\APP\\iwdg.c                          0x00000000   Number         0  iwdg.o ABSOLUTE
    ..\\APP\\led.c                           0x00000000   Number         0  led.o ABSOLUTE
    ..\\APP\\modbus_asc.c                    0x00000000   Number         0  modbus_asc.o ABSOLUTE
    ..\\APP\\modbus_ascii.c                  0x00000000   Number         0  modbus_ascii.o ABSOLUTE
    ..\\APP\\para.c                          0x00000000   Number         0  para.o ABSOLUTE
    ..\\APP\\system.c                        0x00000000   Number         0  system.o ABSOLUTE
    ..\\APP\\task.c                          0x00000000   Number         0  task.o ABSOLUTE
    ..\\APP\\tim.c                           0x00000000   Number         0  tim_1.o ABSOLUTE
    ..\\APP\\usart.c                         0x00000000   Number         0  usart_1.o ABSOLUTE
    ..\\Drivers\\STM32G0xx_HAL_Driver\\Src\\stm32g0xx_hal_iwdg.c 0x00000000   Number         0  stm32g0xx_hal_iwdg.o ABSOLUTE
    ..\\Src\\board.c                         0x00000000   Number         0  board.o ABSOLUTE
    ..\\Src\\system_clock.c                  0x00000000   Number         0  system_clock.o ABSOLUTE
    dc.s                                     0x00000000   Number         0  dc.o ABSOLUTE
    handlers.s                               0x00000000   Number         0  handlers.o ABSOLUTE
    init.s                                   0x00000000   Number         0  init.o ABSOLUTE
    startup_stm32g070xx.s                    0x00000000   Number         0  startup_stm32g070xx.o ABSOLUTE
    RESET                                    0x08004000   Section      184  startup_stm32g070xx.o(RESET)
    .ARM.Collect$$$$00000000                 0x080040b8   Section        0  entry.o(.ARM.Collect$$$$00000000)
    .ARM.Collect$$$$00000001                 0x080040b8   Section        4  entry2.o(.ARM.Collect$$$$00000001)
    .ARM.Collect$$$$00000004                 0x080040bc   Section        4  entry5.o(.ARM.Collect$$$$00000004)
    .ARM.Collect$$$$00000008                 0x080040c0   Section        0  entry7b.o(.ARM.Collect$$$$00000008)
    .ARM.Collect$$$$0000000A                 0x080040c0   Section        0  entry8b.o(.ARM.Collect$$$$0000000A)
    .ARM.Collect$$$$0000000B                 0x080040c0   Section        8  entry9a.o(.ARM.Collect$$$$0000000B)
    .ARM.Collect$$$$0000000D                 0x080040c8   Section        0  entry10a.o(.ARM.Collect$$$$0000000D)
    .ARM.Collect$$$$0000000F                 0x080040c8   Section        0  entry11a.o(.ARM.Collect$$$$0000000F)
    .ARM.Collect$$$$00002712                 0x080040c8   Section        4  entry2.o(.ARM.Collect$$$$00002712)
    __lit__00000000                          0x080040c8   Data           4  entry2.o(.ARM.Collect$$$$00002712)
    .text                                    0x080040cc   Section       28  startup_stm32g070xx.o(.text)
    .text                                    0x080040e8   Section      216  context_rvds.o(.text)
    .text                                    0x080041c0   Section        0  uidiv.o(.text)
    .text                                    0x080041ec   Section        0  idiv.o(.text)
    .text                                    0x08004214   Section        0  memcpya.o(.text)
    .text                                    0x08004238   Section        0  memseta.o(.text)
    .text                                    0x0800425c   Section        0  strcat.o(.text)
    .text                                    0x08004274   Section        0  strncpy.o(.text)
    .text                                    0x0800428e   Section        0  strlen.o(.text)
    .text                                    0x0800429c   Section        0  strcmp.o(.text)
    .text                                    0x080042b8   Section        0  strcpy.o(.text)
    .text                                    0x080042ca   Section        0  strncmp.o(.text)
    .text                                    0x080042e8   Section       36  init.o(.text)
    .text                                    0x0800430c   Section        0  __dczerorl2.o(.text)
    i.$Sub$$main                             0x08004362   Section        0  components.o(i.$Sub$$main)
    i.DMA1_Channel1_IRQHandler               0x0800436c   Section        0  stm32g0xx_it.o(i.DMA1_Channel1_IRQHandler)
    i.DMA1_Channel2_3_IRQHandler             0x0800437c   Section        0  stm32g0xx_it.o(i.DMA1_Channel2_3_IRQHandler)
    i.DMA_CalcDMAMUXChannelBaseAndMask       0x08004394   Section        0  stm32g0xx_hal_dma.o(i.DMA_CalcDMAMUXChannelBaseAndMask)
    DMA_CalcDMAMUXChannelBaseAndMask         0x08004395   Thumb Code    48  stm32g0xx_hal_dma.o(i.DMA_CalcDMAMUXChannelBaseAndMask)
    i.DMA_CalcDMAMUXRequestGenBaseAndMask    0x080043c8   Section        0  stm32g0xx_hal_dma.o(i.DMA_CalcDMAMUXRequestGenBaseAndMask)
    DMA_CalcDMAMUXRequestGenBaseAndMask      0x080043c9   Thumb Code    32  stm32g0xx_hal_dma.o(i.DMA_CalcDMAMUXRequestGenBaseAndMask)
    i.DMA_SetConfig                          0x080043ec   Section        0  stm32g0xx_hal_dma.o(i.DMA_SetConfig)
    DMA_SetConfig                            0x080043ed   Thumb Code    70  stm32g0xx_hal_dma.o(i.DMA_SetConfig)
    i.Error_Handler                          0x08004438   Section        0  main.o(i.Error_Handler)
    i.FLASH_MassErase                        0x0800443c   Section        0  stm32g0xx_hal_flash_ex.o(i.FLASH_MassErase)
    FLASH_MassErase                          0x0800443d   Thumb Code    14  stm32g0xx_hal_flash_ex.o(i.FLASH_MassErase)
    i.FLASH_PageErase                        0x08004454   Section        0  stm32g0xx_hal_flash_ex.o(i.FLASH_PageErase)
    i.FLASH_Program_DoubleWord               0x08004478   Section        0  stm32g0xx_hal_flash.o(i.FLASH_Program_DoubleWord)
    FLASH_Program_DoubleWord                 0x08004479   Thumb Code    36  stm32g0xx_hal_flash.o(i.FLASH_Program_DoubleWord)
    i.FLASH_Program_Fast                     0x080044a0   Section        0  stm32g0xx_hal_flash.o(i.FLASH_Program_Fast)
    FLASH_Program_Fast                       0x080044a1   Thumb Code    78  stm32g0xx_hal_flash.o(i.FLASH_Program_Fast)
    i.FLASH_WaitForLastOperation             0x080044f4   Section        0  stm32g0xx_hal_flash.o(i.FLASH_WaitForLastOperation)
    i.FlashPageErase                         0x08004584   Section        0  inflash.o(i.FlashPageErase)
    i.FlashReadNWord                         0x080045d4   Section        0  inflash.o(i.FlashReadNWord)
    i.FlashReadWord                          0x080045fc   Section        0  inflash.o(i.FlashReadWord)
    i.FlashWriteDoubleWord                   0x08004604   Section        0  inflash.o(i.FlashWriteDoubleWord)
    i.GetPage                                0x08004660   Section        0  inflash.o(i.GetPage)
    i.HAL_ADC_AnalogWDGConfig                0x0800466c   Section        0  stm32g0xx_hal_adc.o(i.HAL_ADC_AnalogWDGConfig)
    i.HAL_ADC_ConfigChannel                  0x08004af8   Section        0  stm32g0xx_hal_adc.o(i.HAL_ADC_ConfigChannel)
    i.HAL_ADC_Init                           0x08004e54   Section        0  stm32g0xx_hal_adc.o(i.HAL_ADC_Init)
    i.HAL_ADC_MspInit                        0x0800510c   Section        0  adc_1.o(i.HAL_ADC_MspInit)
    i.HAL_DMA_Abort                          0x080051c8   Section        0  stm32g0xx_hal_dma.o(i.HAL_DMA_Abort)
    i.HAL_DMA_Abort_IT                       0x08005260   Section        0  stm32g0xx_hal_dma.o(i.HAL_DMA_Abort_IT)
    i.HAL_DMA_GetError                       0x08005314   Section        0  stm32g0xx_hal_dma.o(i.HAL_DMA_GetError)
    i.HAL_DMA_IRQHandler                     0x0800531c   Section        0  stm32g0xx_hal_dma.o(i.HAL_DMA_IRQHandler)
    i.HAL_DMA_Init                           0x0800543c   Section        0  stm32g0xx_hal_dma.o(i.HAL_DMA_Init)
    i.HAL_DMA_Start_IT                       0x080054f8   Section        0  stm32g0xx_hal_dma.o(i.HAL_DMA_Start_IT)
    i.HAL_Delay                              0x080055cc   Section        0  stm32g0xx_hal.o(i.HAL_Delay)
    i.HAL_FLASHEx_Erase                      0x080055f8   Section        0  stm32g0xx_hal_flash_ex.o(i.HAL_FLASHEx_Erase)
    i.HAL_FLASH_Lock                         0x08005690   Section        0  stm32g0xx_hal_flash.o(i.HAL_FLASH_Lock)
    i.HAL_FLASH_Program                      0x080056b4   Section        0  stm32g0xx_hal_flash.o(i.HAL_FLASH_Program)
    i.HAL_FLASH_Unlock                       0x0800572c   Section        0  stm32g0xx_hal_flash.o(i.HAL_FLASH_Unlock)
    i.HAL_GPIO_Init                          0x08005760   Section        0  stm32g0xx_hal_gpio.o(i.HAL_GPIO_Init)
    i.HAL_GPIO_TogglePin                     0x08005930   Section        0  stm32g0xx_hal_gpio.o(i.HAL_GPIO_TogglePin)
    i.HAL_GPIO_WritePin                      0x08005940   Section        0  stm32g0xx_hal_gpio.o(i.HAL_GPIO_WritePin)
    i.HAL_GetTick                            0x0800594c   Section        0  stm32g0xx_hal.o(i.HAL_GetTick)
    i.HAL_IWDG_Init                          0x08005958   Section        0  stm32g0xx_hal_iwdg.o(i.HAL_IWDG_Init)
    i.HAL_Init                               0x080059c4   Section        0  stm32g0xx_hal.o(i.HAL_Init)
    i.HAL_InitTick                           0x080059f0   Section        0  stm32g0xx_hal.o(i.HAL_InitTick)
    i.HAL_MspInit                            0x08005a50   Section        0  stm32g0xx_hal_msp.o(i.HAL_MspInit)
    i.HAL_NVIC_EnableIRQ                     0x08005a94   Section        0  stm32g0xx_hal_cortex.o(i.HAL_NVIC_EnableIRQ)
    i.HAL_NVIC_SetPriority                   0x08005ab0   Section        0  stm32g0xx_hal_cortex.o(i.HAL_NVIC_SetPriority)
    i.HAL_PWREx_ControlVoltageScaling        0x08005ac4   Section        0  stm32g0xx_hal_pwr_ex.o(i.HAL_PWREx_ControlVoltageScaling)
    i.HAL_RCCEx_PeriphCLKConfig              0x08005b1c   Section        0  stm32g0xx_hal_rcc_ex.o(i.HAL_RCCEx_PeriphCLKConfig)
    i.HAL_RCC_ClockConfig                    0x08005d20   Section        0  stm32g0xx_hal_rcc.o(i.HAL_RCC_ClockConfig)
    i.HAL_RCC_GetHCLKFreq                    0x08005ef4   Section        0  stm32g0xx_hal_rcc.o(i.HAL_RCC_GetHCLKFreq)
    i.HAL_RCC_GetPCLK1Freq                   0x08005f00   Section        0  stm32g0xx_hal_rcc.o(i.HAL_RCC_GetPCLK1Freq)
    i.HAL_RCC_GetSysClockFreq                0x08005f28   Section        0  stm32g0xx_hal_rcc.o(i.HAL_RCC_GetSysClockFreq)
    i.HAL_RCC_OscConfig                      0x0800600c   Section        0  stm32g0xx_hal_rcc.o(i.HAL_RCC_OscConfig)
    i.HAL_SYSTICK_Config                     0x080065c0   Section        0  stm32g0xx_hal_cortex.o(i.HAL_SYSTICK_Config)
    i.HAL_TIMEx_Break2Callback               0x080065f8   Section        0  stm32g0xx_hal_tim_ex.o(i.HAL_TIMEx_Break2Callback)
    i.HAL_TIMEx_BreakCallback                0x080065fa   Section        0  stm32g0xx_hal_tim_ex.o(i.HAL_TIMEx_BreakCallback)
    i.HAL_TIMEx_CommutCallback               0x080065fc   Section        0  stm32g0xx_hal_tim_ex.o(i.HAL_TIMEx_CommutCallback)
    i.HAL_TIMEx_ConfigBreakDeadTime          0x08006600   Section        0  stm32g0xx_hal_tim_ex.o(i.HAL_TIMEx_ConfigBreakDeadTime)
    i.HAL_TIMEx_MasterConfigSynchronization  0x08006700   Section        0  stm32g0xx_hal_tim_ex.o(i.HAL_TIMEx_MasterConfigSynchronization)
    i.HAL_TIM_Base_Init                      0x08006778   Section        0  stm32g0xx_hal_tim.o(i.HAL_TIM_Base_Init)
    i.HAL_TIM_Base_MspInit                   0x080067b0   Section        0  tim_1.o(i.HAL_TIM_Base_MspInit)
    i.HAL_TIM_Base_Start_IT                  0x080067f4   Section        0  stm32g0xx_hal_tim.o(i.HAL_TIM_Base_Start_IT)
    i.HAL_TIM_ConfigClockSource              0x0800682c   Section        0  stm32g0xx_hal_tim.o(i.HAL_TIM_ConfigClockSource)
    i.HAL_TIM_IC_CaptureCallback             0x0800693c   Section        0  stm32g0xx_hal_tim.o(i.HAL_TIM_IC_CaptureCallback)
    i.HAL_TIM_IRQHandler                     0x08006940   Section        0  stm32g0xx_hal_tim.o(i.HAL_TIM_IRQHandler)
    i.HAL_TIM_OC_DelayElapsedCallback        0x08006b38   Section        0  stm32g0xx_hal_tim.o(i.HAL_TIM_OC_DelayElapsedCallback)
    i.HAL_TIM_PWM_PulseFinishedCallback      0x08006b3a   Section        0  stm32g0xx_hal_tim.o(i.HAL_TIM_PWM_PulseFinishedCallback)
    i.HAL_TIM_PeriodElapsedCallback          0x08006b3c   Section        0  tim_1.o(i.HAL_TIM_PeriodElapsedCallback)
    i.HAL_TIM_TriggerCallback                0x08006c58   Section        0  stm32g0xx_hal_tim.o(i.HAL_TIM_TriggerCallback)
    i.HAL_UARTEx_DisableFifoMode             0x08006c5a   Section        0  stm32g0xx_hal_uart_ex.o(i.HAL_UARTEx_DisableFifoMode)
    i.HAL_UARTEx_RxFifoFullCallback          0x08006cae   Section        0  stm32g0xx_hal_uart_ex.o(i.HAL_UARTEx_RxFifoFullCallback)
    i.HAL_UARTEx_SetRxFifoThreshold          0x08006cb0   Section        0  stm32g0xx_hal_uart_ex.o(i.HAL_UARTEx_SetRxFifoThreshold)
    i.HAL_UARTEx_SetTxFifoThreshold          0x08006d10   Section        0  stm32g0xx_hal_uart_ex.o(i.HAL_UARTEx_SetTxFifoThreshold)
    i.HAL_UARTEx_TxFifoEmptyCallback         0x08006d6e   Section        0  stm32g0xx_hal_uart_ex.o(i.HAL_UARTEx_TxFifoEmptyCallback)
    i.HAL_UARTEx_WakeupCallback              0x08006d70   Section        0  stm32g0xx_hal_uart_ex.o(i.HAL_UARTEx_WakeupCallback)
    i.HAL_UART_DMAStop                       0x08006d72   Section        0  stm32g0xx_hal_uart.o(i.HAL_UART_DMAStop)
    i.HAL_UART_ErrorCallback                 0x08006e0a   Section        0  stm32g0xx_hal_uart.o(i.HAL_UART_ErrorCallback)
    i.HAL_UART_IRQHandler                    0x08006e0c   Section        0  stm32g0xx_hal_uart.o(i.HAL_UART_IRQHandler)
    i.HAL_UART_Init                          0x08007048   Section        0  stm32g0xx_hal_uart.o(i.HAL_UART_Init)
    i.HAL_UART_MspInit                       0x080070cc   Section        0  usart_1.o(i.HAL_UART_MspInit)
    i.HAL_UART_Receive_DMA                   0x080071d8   Section        0  stm32g0xx_hal_uart.o(i.HAL_UART_Receive_DMA)
    i.HAL_UART_RxCpltCallback                0x080072c8   Section        0  stm32g0xx_hal_uart.o(i.HAL_UART_RxCpltCallback)
    i.HAL_UART_RxHalfCpltCallback            0x080072ca   Section        0  stm32g0xx_hal_uart.o(i.HAL_UART_RxHalfCpltCallback)
    i.HAL_UART_Transmit_DMA                  0x080072cc   Section        0  stm32g0xx_hal_uart.o(i.HAL_UART_Transmit_DMA)
    i.HAL_UART_TxCpltCallback                0x080073ac   Section        0  stm32g0xx_hal_uart.o(i.HAL_UART_TxCpltCallback)
    i.HAL_UART_TxHalfCpltCallback            0x080073ae   Section        0  stm32g0xx_hal_uart.o(i.HAL_UART_TxHalfCpltCallback)
    i.LL_ADC_GetCommonPathInternalCh         0x080073b0   Section        0  stm32g0xx_hal_adc.o(i.LL_ADC_GetCommonPathInternalCh)
    LL_ADC_GetCommonPathInternalCh           0x080073b1   Thumb Code    12  stm32g0xx_hal_adc.o(i.LL_ADC_GetCommonPathInternalCh)
    i.LL_ADC_IsEnabled                       0x080073bc   Section        0  stm32g0xx_hal_adc.o(i.LL_ADC_IsEnabled)
    LL_ADC_IsEnabled                         0x080073bd   Thumb Code    16  stm32g0xx_hal_adc.o(i.LL_ADC_IsEnabled)
    i.LL_ADC_IsInternalRegulatorEnabled      0x080073cc   Section        0  stm32g0xx_hal_adc.o(i.LL_ADC_IsInternalRegulatorEnabled)
    LL_ADC_IsInternalRegulatorEnabled        0x080073cd   Thumb Code    14  stm32g0xx_hal_adc.o(i.LL_ADC_IsInternalRegulatorEnabled)
    i.LL_ADC_REG_IsConversionOngoing         0x080073da   Section        0  stm32g0xx_hal_adc.o(i.LL_ADC_REG_IsConversionOngoing)
    LL_ADC_REG_IsConversionOngoing           0x080073db   Thumb Code    12  stm32g0xx_hal_adc.o(i.LL_ADC_REG_IsConversionOngoing)
    i.LL_ADC_SetAnalogWDMonitChannels        0x080073e8   Section        0  stm32g0xx_hal_adc.o(i.LL_ADC_SetAnalogWDMonitChannels)
    LL_ADC_SetAnalogWDMonitChannels          0x080073e9   Thumb Code    50  stm32g0xx_hal_adc.o(i.LL_ADC_SetAnalogWDMonitChannels)
    i.LL_ADC_SetCommonPathInternalCh         0x08007424   Section        0  stm32g0xx_hal_adc.o(i.LL_ADC_SetCommonPathInternalCh)
    LL_ADC_SetCommonPathInternalCh           0x08007425   Thumb Code    14  stm32g0xx_hal_adc.o(i.LL_ADC_SetCommonPathInternalCh)
    i.LL_ADC_SetSamplingTimeCommonChannels   0x08007432   Section        0  stm32g0xx_hal_adc.o(i.LL_ADC_SetSamplingTimeCommonChannels)
    LL_ADC_SetSamplingTimeCommonChannels     0x08007433   Thumb Code    30  stm32g0xx_hal_adc.o(i.LL_ADC_SetSamplingTimeCommonChannels)
    i.MBASC_Fun03                            0x08007450   Section        0  modbus_asc.o(i.MBASC_Fun03)
    i.MBASC_Fun04                            0x08007624   Section        0  modbus_asc.o(i.MBASC_Fun04)
    i.MBASC_Fun05                            0x08007764   Section        0  modbus_asc.o(i.MBASC_Fun05)
    i.MBASC_Fun10                            0x08007870   Section        0  modbus_asc.o(i.MBASC_Fun10)
    i.MBASC_Fun2B                            0x08007a9c   Section        0  modbus_asc.o(i.MBASC_Fun2B)
    i.MBASC_Fun41                            0x08007cd0   Section        0  modbus_asc.o(i.MBASC_Fun41)
    i.MBASC_Function                         0x08007e10   Section        0  modbus_asc.o(i.MBASC_Function)
    i.MBASC_GetSlaveAddr                     0x08007ef8   Section        0  modbus_asc.o(i.MBASC_GetSlaveAddr)
    i.MBASC_SendErr                          0x08007f00   Section        0  modbus_asc.o(i.MBASC_SendErr)
    i.MBASC_SendMsg                          0x08007f44   Section        0  modbus_asc.o(i.MBASC_SendMsg)
    i.MBASC_SendMsg_NoLimit                  0x08007f60   Section        0  modbus_asc.o(i.MBASC_SendMsg_NoLimit)
    i.MODBUS_ASCII_AsciiPacketToRtuPacket    0x08007f76   Section        0  modbus_ascii.o(i.MODBUS_ASCII_AsciiPacketToRtuPacket)
    i.MODBUS_ASCII_AsciiToHex                0x08007fb6   Section        0  modbus_ascii.o(i.MODBUS_ASCII_AsciiToHex)
    i.MODBUS_ASCII_CheckAscii                0x08008010   Section        0  modbus_ascii.o(i.MODBUS_ASCII_CheckAscii)
    i.MODBUS_ASCII_GetLrc                    0x0800805a   Section        0  modbus_ascii.o(i.MODBUS_ASCII_GetLrc)
    i.MODBUS_ASCII_HandlRevData              0x080080a4   Section        0  modbus_ascii.o(i.MODBUS_ASCII_HandlRevData)
    i.MODBUS_ASCII_HexToAscii                0x0800817c   Section        0  modbus_ascii.o(i.MODBUS_ASCII_HexToAscii)
    i.MODBUS_ASCII_RecvData                  0x080081c4   Section        0  modbus_ascii.o(i.MODBUS_ASCII_RecvData)
    i.MODBUS_ASCII_RtuPacketToAsciiPacket    0x0800824c   Section        0  modbus_ascii.o(i.MODBUS_ASCII_RtuPacketToAsciiPacket)
    i.MODBUS_ASCII_SendData                  0x08008274   Section        0  modbus_ascii.o(i.MODBUS_ASCII_SendData)
    i.MX_ADC1_Init                           0x080082e8   Section        0  adc_1.o(i.MX_ADC1_Init)
    i.MX_DMA_Init                            0x080083c8   Section        0  dma_1.o(i.MX_DMA_Init)
    i.MX_GPIO_Init                           0x0800840c   Section        0  led.o(i.MX_GPIO_Init)
    i.MX_TIM1_Init                           0x08008498   Section        0  tim_1.o(i.MX_TIM1_Init)
    i.MX_TIM3_Init                           0x08008538   Section        0  tim_1.o(i.MX_TIM3_Init)
    i.MX_USART1_UART_Init                    0x080085b8   Section        0  usart_1.o(i.MX_USART1_UART_Init)
    i.NMI_Handler                            0x080086f0   Section        0  stm32g0xx_it.o(i.NMI_Handler)
    i.ReadPara                               0x080086f4   Section        0  para.o(i.ReadPara)
    i.SVC_Handler                            0x08008820   Section        0  stm32g0xx_it.o(i.SVC_Handler)
    i.SysTick_Handler                        0x08008822   Section        0  board.o(i.SysTick_Handler)
    i.SystemClock_Config                     0x08008834   Section        0  system_clock.o(i.SystemClock_Config)
    i.SystemInit                             0x080088d0   Section        0  system_stm32g0xx.o(i.SystemInit)
    i.TIM3_IRQHandler                        0x080088e0   Section        0  stm32g0xx_it.o(i.TIM3_IRQHandler)
    i.TIM_Base_SetConfig                     0x080088f0   Section        0  stm32g0xx_hal_tim.o(i.TIM_Base_SetConfig)
    i.TIM_ETR_SetConfig                      0x08008990   Section        0  stm32g0xx_hal_tim.o(i.TIM_ETR_SetConfig)
    i.TIM_ITRx_SetConfig                     0x080089ac   Section        0  stm32g0xx_hal_tim.o(i.TIM_ITRx_SetConfig)
    TIM_ITRx_SetConfig                       0x080089ad   Thumb Code    18  stm32g0xx_hal_tim.o(i.TIM_ITRx_SetConfig)
    i.TIM_TI1_ConfigInputStage               0x080089c4   Section        0  stm32g0xx_hal_tim.o(i.TIM_TI1_ConfigInputStage)
    TIM_TI1_ConfigInputStage                 0x080089c5   Thumb Code    50  stm32g0xx_hal_tim.o(i.TIM_TI1_ConfigInputStage)
    i.TIM_TI2_ConfigInputStage               0x080089f6   Section        0  stm32g0xx_hal_tim.o(i.TIM_TI2_ConfigInputStage)
    TIM_TI2_ConfigInputStage                 0x080089f7   Thumb Code    50  stm32g0xx_hal_tim.o(i.TIM_TI2_ConfigInputStage)
    i.UARTEx_SetNbDataToProcess              0x08008a28   Section        0  stm32g0xx_hal_uart_ex.o(i.UARTEx_SetNbDataToProcess)
    UARTEx_SetNbDataToProcess                0x08008a29   Thumb Code   114  stm32g0xx_hal_uart_ex.o(i.UARTEx_SetNbDataToProcess)
    i.UART_AdvFeatureConfig                  0x08008aac   Section        0  stm32g0xx_hal_uart.o(i.UART_AdvFeatureConfig)
    i.UART_CheckIdleState                    0x08008b9c   Section        0  stm32g0xx_hal_uart.o(i.UART_CheckIdleState)
    i.UART_DMAAbortOnError                   0x08008c10   Section        0  stm32g0xx_hal_uart.o(i.UART_DMAAbortOnError)
    UART_DMAAbortOnError                     0x08008c11   Thumb Code    24  stm32g0xx_hal_uart.o(i.UART_DMAAbortOnError)
    i.UART_DMAError                          0x08008c28   Section        0  stm32g0xx_hal_uart.o(i.UART_DMAError)
    UART_DMAError                            0x08008c29   Thumb Code    90  stm32g0xx_hal_uart.o(i.UART_DMAError)
    i.UART_DMAReceiveCplt                    0x08008c82   Section        0  stm32g0xx_hal_uart.o(i.UART_DMAReceiveCplt)
    UART_DMAReceiveCplt                      0x08008c83   Thumb Code    76  stm32g0xx_hal_uart.o(i.UART_DMAReceiveCplt)
    i.UART_DMARxHalfCplt                     0x08008cce   Section        0  stm32g0xx_hal_uart.o(i.UART_DMARxHalfCplt)
    UART_DMARxHalfCplt                       0x08008ccf   Thumb Code    14  stm32g0xx_hal_uart.o(i.UART_DMARxHalfCplt)
    i.UART_DMATransmitCplt                   0x08008cdc   Section        0  stm32g0xx_hal_uart.o(i.UART_DMATransmitCplt)
    UART_DMATransmitCplt                     0x08008cdd   Thumb Code    58  stm32g0xx_hal_uart.o(i.UART_DMATransmitCplt)
    i.UART_DMATxHalfCplt                     0x08008d16   Section        0  stm32g0xx_hal_uart.o(i.UART_DMATxHalfCplt)
    UART_DMATxHalfCplt                       0x08008d17   Thumb Code    14  stm32g0xx_hal_uart.o(i.UART_DMATxHalfCplt)
    i.UART_DMA_Send                          0x08008d24   Section        0  usart_1.o(i.UART_DMA_Send)
    i.UART_EndRxTransfer                     0x08008d44   Section        0  stm32g0xx_hal_uart.o(i.UART_EndRxTransfer)
    UART_EndRxTransfer                       0x08008d45   Thumb Code    38  stm32g0xx_hal_uart.o(i.UART_EndRxTransfer)
    i.UART_EndTransmit_IT                    0x08008d70   Section        0  stm32g0xx_hal_uart.o(i.UART_EndTransmit_IT)
    UART_EndTransmit_IT                      0x08008d71   Thumb Code    34  stm32g0xx_hal_uart.o(i.UART_EndTransmit_IT)
    i.UART_EndTxTransfer                     0x08008d92   Section        0  stm32g0xx_hal_uart.o(i.UART_EndTxTransfer)
    UART_EndTxTransfer                       0x08008d93   Thumb Code    34  stm32g0xx_hal_uart.o(i.UART_EndTxTransfer)
    i.UART_SetConfig                         0x08008db4   Section        0  stm32g0xx_hal_uart.o(i.UART_SetConfig)
    i.UART_WaitOnFlagUntilTimeout            0x08009454   Section        0  stm32g0xx_hal_uart.o(i.UART_WaitOnFlagUntilTimeout)
    i.USART1_IRQHandler                      0x080094c4   Section        0  usart_1.o(i.USART1_IRQHandler)
    i.User_Iwdg_Init                         0x08009540   Section        0  iwdg.o(i.User_Iwdg_Init)
    i.Z_F_Zhuan_thread_entry                 0x08009568   Section        0  task.o(i.Z_F_Zhuan_thread_entry)
    i.__ARM_common_switch8                   0x08009570   Section        0  usart_1.o(i.__ARM_common_switch8)
    i.__NVIC_SetPriority                     0x0800958c   Section        0  stm32g0xx_hal_cortex.o(i.__NVIC_SetPriority)
    __NVIC_SetPriority                       0x0800958d   Thumb Code   110  stm32g0xx_hal_cortex.o(i.__NVIC_SetPriority)
    i.__rt_ffs                               0x08009604   Section        0  kservice.o(i.__rt_ffs)
    i.__scatterload_copy                     0x08009660   Section       14  handlers.o(i.__scatterload_copy)
    i.__scatterload_null                     0x0800966e   Section        2  handlers.o(i.__scatterload_null)
    i.__scatterload_zeroinit                 0x08009670   Section       14  handlers.o(i.__scatterload_zeroinit)
    i._has_defunct_thread                    0x08009680   Section        0  idle.o(i._has_defunct_thread)
    _has_defunct_thread                      0x08009681   Thumb Code    16  idle.o(i._has_defunct_thread)
    i._msh_exec_cmd                          0x08009694   Section        0  msh.o(i._msh_exec_cmd)
    _msh_exec_cmd                            0x08009695   Thumb Code   100  msh.o(i._msh_exec_cmd)
    i._rt_thread_init                        0x080096f8   Section        0  thread.o(i._rt_thread_init)
    _rt_thread_init                          0x080096f9   Thumb Code   130  thread.o(i._rt_thread_init)
    i._rt_timer_init                         0x08009784   Section        0  timer.o(i._rt_timer_init)
    _rt_timer_init                           0x08009785   Thumb Code    60  timer.o(i._rt_timer_init)
    i._rt_timer_remove                       0x080097c0   Section        0  timer.o(i._rt_timer_remove)
    _rt_timer_remove                         0x080097c1   Thumb Code    46  timer.o(i._rt_timer_remove)
    i.cmd_free                               0x080097ee   Section        0  msh.o(i.cmd_free)
    i.cmd_ps                                 0x080097fc   Section        0  msh.o(i.cmd_ps)
    i.finsh_get_prompt                       0x0800980c   Section        0  shell.o(i.finsh_get_prompt)
    i.finsh_getchar                          0x08009884   Section        0  shell.o(i.finsh_getchar)
    finsh_getchar                            0x08009885   Thumb Code     2  shell.o(i.finsh_getchar)
    i.finsh_set_prompt_mode                  0x08009888   Section        0  shell.o(i.finsh_set_prompt_mode)
    i.finsh_system_function_init             0x080098ac   Section        0  shell.o(i.finsh_system_function_init)
    i.finsh_system_init                      0x080098c0   Section        0  shell.o(i.finsh_system_init)
    i.finsh_thread_entry                     0x08009960   Section        0  shell.o(i.finsh_thread_entry)
    i.hello                                  0x08009d44   Section        0  cmd.o(i.hello)
    i.led_thread_entry                       0x08009d64   Section        0  task.o(i.led_thread_entry)
    i.list                                   0x08009d7c   Section        0  cmd.o(i.list)
    i.list_event                             0x08009dd8   Section        0  cmd.o(i.list_event)
    i.list_find_init                         0x08009f1c   Section        0  cmd.o(i.list_find_init)
    list_find_init                           0x08009f1d   Thumb Code    40  cmd.o(i.list_find_init)
    i.list_get_next                          0x08009f44   Section        0  cmd.o(i.list_get_next)
    list_get_next                            0x08009f45   Thumb Code   150  cmd.o(i.list_get_next)
    i.list_mailbox                           0x08009fdc   Section        0  cmd.o(i.list_mailbox)
    i.list_mem                               0x0800a138   Section        0  mem.o(i.list_mem)
    i.list_msgqueue                          0x0800a1b0   Section        0  cmd.o(i.list_msgqueue)
    i.list_mutex                             0x0800a2f4   Section        0  cmd.o(i.list_mutex)
    i.list_sem                               0x0800a404   Section        0  cmd.o(i.list_sem)
    i.list_thread                            0x0800a53c   Section        0  cmd.o(i.list_thread)
    i.list_timer                             0x0800a728   Section        0  cmd.o(i.list_timer)
    i.long32Array                            0x0800a884   Section        0  common.o(i.long32Array)
    i.main                                   0x0800a8a0   Section        0  main.o(i.main)
    i.main_thread_entry                      0x0800a8b0   Section        0  components.o(i.main_thread_entry)
    i.msh_auto_complete                      0x0800a8c0   Section        0  msh.o(i.msh_auto_complete)
    i.msh_exec                               0x0800a964   Section        0  msh.o(i.msh_exec)
    i.msh_get_cmd                            0x0800a9d4   Section        0  msh.o(i.msh_get_cmd)
    msh_get_cmd                              0x0800a9d5   Thumb Code    78  msh.o(i.msh_get_cmd)
    i.msh_help                               0x0800aa34   Section        0  msh.o(i.msh_help)
    i.msh_is_used                            0x0800aaac   Section        0  msh.o(i.msh_is_used)
    i.msh_split                              0x0800aab0   Section        0  msh.o(i.msh_split)
    msh_split                                0x0800aab1   Thumb Code   210  msh.o(i.msh_split)
    i.object_split                           0x0800aba8   Section        0  cmd.o(i.object_split)
    object_split                             0x0800aba9   Thumb Code    22  cmd.o(i.object_split)
    i.plug_holes                             0x0800abc4   Section        0  mem.o(i.plug_holes)
    plug_holes                               0x0800abc5   Thumb Code   112  mem.o(i.plug_holes)
    i.print_number                           0x0800ac40   Section        0  kservice.o(i.print_number)
    print_number                             0x0800ac41   Thumb Code   396  kservice.o(i.print_number)
    i.rt_application_init                    0x0800add4   Section        0  components.o(i.rt_application_init)
    i.rt_calloc                              0x0800ae04   Section        0  mem.o(i.rt_calloc)
    i.rt_components_board_init               0x0800ae2c   Section        0  components.o(i.rt_components_board_init)
    i.rt_components_init                     0x0800ae48   Section        0  components.o(i.rt_components_init)
    i.rt_enter_critical                      0x0800ae64   Section        0  scheduler.o(i.rt_enter_critical)
    i.rt_exit_critical                       0x0800ae84   Section        0  scheduler.o(i.rt_exit_critical)
    i.rt_free                                0x0800aecc   Section        0  mem.o(i.rt_free)
    i.rt_heap_begin_get                      0x0800afb4   Section        0  board.o(i.rt_heap_begin_get)
    i.rt_heap_end_get                        0x0800afbc   Section        0  board.o(i.rt_heap_end_get)
    i.rt_hw_board_init                       0x0800afc4   Section        0  board.o(i.rt_hw_board_init)
    i.rt_hw_console_output                   0x0800afe2   Section        0  kservice.o(i.rt_hw_console_output)
    i.rt_hw_hard_fault_exception             0x0800afe4   Section        0  cpuport.o(i.rt_hw_hard_fault_exception)
    i.rt_hw_stack_init                       0x0800b0d8   Section        0  cpuport.o(i.rt_hw_stack_init)
    i.rt_interrupt_enter                     0x0800b118   Section        0  irq.o(i.rt_interrupt_enter)
    i.rt_interrupt_leave                     0x0800b138   Section        0  irq.o(i.rt_interrupt_leave)
    i.rt_ipc_list_resume                     0x0800b158   Section        0  ipc.o(i.rt_ipc_list_resume)
    rt_ipc_list_resume                       0x0800b159   Thumb Code    20  ipc.o(i.rt_ipc_list_resume)
    i.rt_ipc_list_suspend                    0x0800b16c   Section        0  ipc.o(i.rt_ipc_list_suspend)
    rt_ipc_list_suspend                      0x0800b16d   Thumb Code    98  ipc.o(i.rt_ipc_list_suspend)
    i.rt_ipc_object_init                     0x0800b1ce   Section        0  ipc.o(i.rt_ipc_object_init)
    rt_ipc_object_init                       0x0800b1cf   Thumb Code    16  ipc.o(i.rt_ipc_object_init)
    i.rt_kprintf                             0x0800b1e0   Section        0  kservice.o(i.rt_kprintf)
    i.rt_list_init                           0x0800b214   Section        0  ipc.o(i.rt_list_init)
    rt_list_init                             0x0800b215   Thumb Code     6  ipc.o(i.rt_list_init)
    i.rt_list_init                           0x0800b21a   Section        0  scheduler.o(i.rt_list_init)
    rt_list_init                             0x0800b21b   Thumb Code     6  scheduler.o(i.rt_list_init)
    i.rt_list_init                           0x0800b220   Section        0  timer.o(i.rt_list_init)
    rt_list_init                             0x0800b221   Thumb Code     6  timer.o(i.rt_list_init)
    i.rt_list_insert_after                   0x0800b226   Section        0  object.o(i.rt_list_insert_after)
    rt_list_insert_after                     0x0800b227   Thumb Code    14  object.o(i.rt_list_insert_after)
    i.rt_list_insert_after                   0x0800b234   Section        0  thread.o(i.rt_list_insert_after)
    rt_list_insert_after                     0x0800b235   Thumb Code    14  thread.o(i.rt_list_insert_after)
    i.rt_list_insert_after                   0x0800b242   Section        0  timer.o(i.rt_list_insert_after)
    rt_list_insert_after                     0x0800b243   Thumb Code    14  timer.o(i.rt_list_insert_after)
    i.rt_list_insert_before                  0x0800b250   Section        0  ipc.o(i.rt_list_insert_before)
    rt_list_insert_before                    0x0800b251   Thumb Code    14  ipc.o(i.rt_list_insert_before)
    i.rt_list_isempty                        0x0800b25e   Section        0  ipc.o(i.rt_list_isempty)
    rt_list_isempty                          0x0800b25f   Thumb Code    16  ipc.o(i.rt_list_isempty)
    i.rt_list_isempty                        0x0800b26e   Section        0  timer.o(i.rt_list_isempty)
    rt_list_isempty                          0x0800b26f   Thumb Code    16  timer.o(i.rt_list_isempty)
    i.rt_list_isempty                        0x0800b27e   Section        0  cmd.o(i.rt_list_isempty)
    rt_list_isempty                          0x0800b27f   Thumb Code    16  cmd.o(i.rt_list_isempty)
    i.rt_list_len                            0x0800b28e   Section        0  cmd.o(i.rt_list_len)
    rt_list_len                              0x0800b28f   Thumb Code    20  cmd.o(i.rt_list_len)
    i.rt_list_remove                         0x0800b2a2   Section        0  object.o(i.rt_list_remove)
    rt_list_remove                           0x0800b2a3   Thumb Code    18  object.o(i.rt_list_remove)
    i.rt_list_remove                         0x0800b2b4   Section        0  thread.o(i.rt_list_remove)
    rt_list_remove                           0x0800b2b5   Thumb Code    18  thread.o(i.rt_list_remove)
    i.rt_malloc                              0x0800b2c8   Section        0  mem.o(i.rt_malloc)
    i.rt_memmove                             0x0800b434   Section        0  kservice.o(i.rt_memmove)
    i.rt_memset                              0x0800b476   Section        0  kservice.o(i.rt_memset)
    i.rt_object_allocate                     0x0800b4c2   Section        0  object.o(i.rt_object_allocate)
    i.rt_object_delete                       0x0800b512   Section        0  object.o(i.rt_object_delete)
    i.rt_object_detach                       0x0800b536   Section        0  object.o(i.rt_object_detach)
    i.rt_object_get_information              0x0800b554   Section        0  object.o(i.rt_object_get_information)
    i.rt_object_init                         0x0800b578   Section        0  object.o(i.rt_object_init)
    i.rt_object_is_systemobject              0x0800b5cc   Section        0  object.o(i.rt_object_is_systemobject)
    i.rt_schedule                            0x0800b5e0   Section        0  scheduler.o(i.rt_schedule)
    i.rt_schedule_insert_thread              0x0800b664   Section        0  scheduler.o(i.rt_schedule_insert_thread)
    i.rt_schedule_remove_thread              0x0800b6b8   Section        0  scheduler.o(i.rt_schedule_remove_thread)
    i.rt_sem_init                            0x0800b710   Section        0  ipc.o(i.rt_sem_init)
    i.rt_sem_release                         0x0800b732   Section        0  ipc.o(i.rt_sem_release)
    i.rt_sem_take                            0x0800b76e   Section        0  ipc.o(i.rt_sem_take)
    i.rt_show_version                        0x0800b7e8   Section        0  kservice.o(i.rt_show_version)
    i.rt_strlen                              0x0800b898   Section        0  kservice.o(i.rt_strlen)
    i.rt_strncpy                             0x0800b8aa   Section        0  kservice.o(i.rt_strncpy)
    i.rt_system_heap_init                    0x0800b8e4   Section        0  mem.o(i.rt_system_heap_init)
    i.rt_system_scheduler_init               0x0800b9d8   Section        0  scheduler.o(i.rt_system_scheduler_init)
    i.rt_system_scheduler_start              0x0800ba24   Section        0  scheduler.o(i.rt_system_scheduler_start)
    i.rt_system_timer_init                   0x0800ba54   Section        0  timer.o(i.rt_system_timer_init)
    i.rt_system_timer_thread_init            0x0800ba70   Section        0  timer.o(i.rt_system_timer_thread_init)
    i.rt_thread_create                       0x0800ba72   Section        0  thread.o(i.rt_thread_create)
    i.rt_thread_exit                         0x0800bac4   Section        0  thread.o(i.rt_thread_exit)
    i.rt_thread_idle_entry                   0x0800bb1c   Section        0  idle.o(i.rt_thread_idle_entry)
    rt_thread_idle_entry                     0x0800bb1d   Thumb Code     8  idle.o(i.rt_thread_idle_entry)
    i.rt_thread_idle_excute                  0x0800bb24   Section        0  idle.o(i.rt_thread_idle_excute)
    i.rt_thread_idle_init                    0x0800bbb8   Section        0  idle.o(i.rt_thread_idle_init)
    i.rt_thread_init                         0x0800bbf4   Section        0  thread.o(i.rt_thread_init)
    i.rt_thread_mdelay                       0x0800bc20   Section        0  thread.o(i.rt_thread_mdelay)
    i.rt_thread_resume                       0x0800bc34   Section        0  thread.o(i.rt_thread_resume)
    i.rt_thread_self                         0x0800bc70   Section        0  thread.o(i.rt_thread_self)
    i.rt_thread_sleep                        0x0800bc7c   Section        0  thread.o(i.rt_thread_sleep)
    i.rt_thread_startup                      0x0800bcc0   Section        0  thread.o(i.rt_thread_startup)
    i.rt_thread_suspend                      0x0800bcf0   Section        0  thread.o(i.rt_thread_suspend)
    i.rt_thread_timeout                      0x0800bd34   Section        0  thread.o(i.rt_thread_timeout)
    i.rt_thread_yield                        0x0800bd54   Section        0  thread.o(i.rt_thread_yield)
    i.rt_tick_from_millisecond               0x0800bdb8   Section        0  clock.o(i.rt_tick_from_millisecond)
    i.rt_tick_get                            0x0800bdf8   Section        0  clock.o(i.rt_tick_get)
    i.rt_tick_increase                       0x0800be04   Section        0  clock.o(i.rt_tick_increase)
    i.rt_timer_check                         0x0800be34   Section        0  timer.o(i.rt_timer_check)
    i.rt_timer_control                       0x0800beb4   Section        0  timer.o(i.rt_timer_control)
    i.rt_timer_detach                        0x0800bef0   Section        0  timer.o(i.rt_timer_detach)
    i.rt_timer_init                          0x0800bf10   Section        0  timer.o(i.rt_timer_init)
    i.rt_timer_start                         0x0800bf38   Section        0  timer.o(i.rt_timer_start)
    i.rt_timer_stop                          0x0800c040   Section        0  timer.o(i.rt_timer_stop)
    i.rt_vsnprintf                           0x0800c070   Section        0  kservice.o(i.rt_vsnprintf)
    i.rti_board_end                          0x0800c3d8   Section        0  components.o(i.rti_board_end)
    rti_board_end                            0x0800c3d9   Thumb Code     4  components.o(i.rti_board_end)
    i.rti_board_start                        0x0800c3dc   Section        0  components.o(i.rti_board_start)
    rti_board_start                          0x0800c3dd   Thumb Code     4  components.o(i.rti_board_start)
    i.rti_end                                0x0800c3e0   Section        0  components.o(i.rti_end)
    rti_end                                  0x0800c3e1   Thumb Code     4  components.o(i.rti_end)
    i.rti_start                              0x0800c3e4   Section        0  components.o(i.rti_start)
    rti_start                                0x0800c3e5   Thumb Code     4  components.o(i.rti_start)
    i.rtthread_startup                       0x0800c3e8   Section        0  components.o(i.rtthread_startup)
    i.shell_auto_complete                    0x0800c414   Section        0  shell.o(i.shell_auto_complete)
    shell_auto_complete                      0x0800c415   Thumb Code    42  shell.o(i.shell_auto_complete)
    i.show_wait_queue                        0x0800c44c   Section        0  cmd.o(i.show_wait_queue)
    show_wait_queue                          0x0800c44d   Thumb Code    40  cmd.o(i.show_wait_queue)
    i.skip_atoi                              0x0800c47c   Section        0  kservice.o(i.skip_atoi)
    skip_atoi                                0x0800c47d   Thumb Code    36  kservice.o(i.skip_atoi)
    i.str_common                             0x0800c4a0   Section        0  msh.o(i.str_common)
    str_common                               0x0800c4a1   Thumb Code    36  msh.o(i.str_common)
    i.system_Init                            0x0800c4c4   Section        0  system.o(i.system_Init)
    i.task_Init                              0x0800c4ec   Section        0  task.o(i.task_Init)
    i.version                                0x0800c570   Section        0  cmd.o(i.version)
    .constdata                               0x0800c57a   Section        8  modbus_asc.o(.constdata)
    .constdata                               0x0800c582   Section      290  kservice.o(.constdata)
    small_digits                             0x0800c682   Data          17  kservice.o(.constdata)
    large_digits                             0x0800c693   Data          17  kservice.o(.constdata)
    .constdata                               0x0800c6a4   Section        9  mem.o(.constdata)
    .constdata                               0x0800c6ad   Section      237  cmd.o(.constdata)
    .constdata                               0x0800c79a   Section       31  msh.o(.constdata)
    .constdata                               0x0800c7bc   Section       96  system_stm32g0xx.o(.constdata)
    .conststring                             0x0800c81c   Section       33  task.o(.conststring)
    .conststring                             0x0800c840   Section       68  cmd.o(.conststring)
    .rti_fn.0                                0x0800c884   Section        4  components.o(.rti_fn.0)
    __tagsym$$used                           0x0800c884   Number         0  components.o(.rti_fn.0)
    .rti_fn.0.end                            0x0800c888   Section        4  components.o(.rti_fn.0.end)
    __tagsym$$used                           0x0800c888   Number         0  components.o(.rti_fn.0.end)
    .rti_fn.1.end                            0x0800c88c   Section        4  components.o(.rti_fn.1.end)
    __tagsym$$used                           0x0800c88c   Number         0  components.o(.rti_fn.1.end)
    .rti_fn.6                                0x0800c890   Section        4  shell.o(.rti_fn.6)
    __tagsym$$used                           0x0800c890   Number         0  shell.o(.rti_fn.6)
    .rti_fn.6.end                            0x0800c894   Section        4  components.o(.rti_fn.6.end)
    __tagsym$$used                           0x0800c894   Number         0  components.o(.rti_fn.6.end)
    FSymTab                                  0x0800c898   Section        8  mem.o(FSymTab)
    __tagsym$$used                           0x0800c898   Number         0  mem.o(FSymTab)
    FSymTab                                  0x0800c8a0   Section      144  cmd.o(FSymTab)
    __tagsym$$used                           0x0800c8a0   Number         0  cmd.o(FSymTab)
    __tagsym$$used                           0x0800c8a8   Number         0  cmd.o(FSymTab)
    __tagsym$$used                           0x0800c8b0   Number         0  cmd.o(FSymTab)
    __tagsym$$used                           0x0800c8b8   Number         0  cmd.o(FSymTab)
    __tagsym$$used                           0x0800c8c0   Number         0  cmd.o(FSymTab)
    __tagsym$$used                           0x0800c8c8   Number         0  cmd.o(FSymTab)
    __tagsym$$used                           0x0800c8d0   Number         0  cmd.o(FSymTab)
    __tagsym$$used                           0x0800c8d8   Number         0  cmd.o(FSymTab)
    __tagsym$$used                           0x0800c8e0   Number         0  cmd.o(FSymTab)
    __tagsym$$used                           0x0800c8e8   Number         0  cmd.o(FSymTab)
    __tagsym$$used                           0x0800c8f0   Number         0  cmd.o(FSymTab)
    __tagsym$$used                           0x0800c8f8   Number         0  cmd.o(FSymTab)
    __tagsym$$used                           0x0800c900   Number         0  cmd.o(FSymTab)
    __tagsym$$used                           0x0800c908   Number         0  cmd.o(FSymTab)
    __tagsym$$used                           0x0800c910   Number         0  cmd.o(FSymTab)
    __tagsym$$used                           0x0800c918   Number         0  cmd.o(FSymTab)
    __tagsym$$used                           0x0800c920   Number         0  cmd.o(FSymTab)
    __tagsym$$used                           0x0800c928   Number         0  cmd.o(FSymTab)
    FSymTab                                  0x0800c930   Section       24  msh.o(FSymTab)
    __tagsym$$used                           0x0800c930   Number         0  msh.o(FSymTab)
    __tagsym$$used                           0x0800c938   Number         0  msh.o(FSymTab)
    __tagsym$$used                           0x0800c940   Number         0  msh.o(FSymTab)
    .data                                    0x20000000   Section       40  para.o(.data)
    .data                                    0x20000028   Section       84  task.o(.data)
    dynamic_thread                           0x20000030   Data           4  task.o(.data)
    .data                                    0x2000007c   Section        8  usart_1.o(.data)
    .data                                    0x20000084   Section       16  tim_1.o(.data)
    .data                                    0x20000094   Section        3  modbus_asc.o(.data)
    .data                                    0x20000098   Section        4  modbus_ascii.o(.data)
    g_cyRevState                             0x20000098   Data           1  modbus_ascii.o(.data)
    g_cyRevBufffLen                          0x2000009a   Data           2  modbus_ascii.o(.data)
    .data                                    0x2000009c   Section       16  inflash.o(.data)
    .data                                    0x200000ac   Section        4  clock.o(.data)
    rt_tick                                  0x200000ac   Data           4  clock.o(.data)
    .data                                    0x200000b0   Section        1  irq.o(.data)
    .data                                    0x200000b4   Section       24  mem.o(.data)
    heap_ptr                                 0x200000b4   Data           4  mem.o(.data)
    heap_end                                 0x200000b8   Data           4  mem.o(.data)
    lfree                                    0x200000bc   Data           4  mem.o(.data)
    mem_size_aligned                         0x200000c0   Data           4  mem.o(.data)
    used_mem                                 0x200000c4   Data           4  mem.o(.data)
    max_mem                                  0x200000c8   Data           4  mem.o(.data)
    .data                                    0x200000cc   Section      112  object.o(.data)
    rt_object_container                      0x200000cc   Data         112  object.o(.data)
    .data                                    0x2000013c   Section       24  scheduler.o(.data)
    rt_scheduler_lock_nest                   0x2000013c   Data           2  scheduler.o(.data)
    .data                                    0x20000154   Section       12  timer.o(.data)
    rt_timer_list                            0x20000154   Data           8  timer.o(.data)
    random_nr                                0x2000015c   Data           4  timer.o(.data)
    .data                                    0x20000160   Section       12  cpuport.o(.data)
    .data                                    0x2000016c   Section       24  shell.o(.data)
    finsh_prompt_custom                      0x20000180   Data           4  shell.o(.data)
    .data                                    0x20000184   Section       12  stm32g0xx_hal.o(.data)
    .data                                    0x20000190   Section        4  system_stm32g0xx.o(.data)
    .bss                                     0x20000194   Section       64  para.o(.bss)
    .bss                                     0x200001d4   Section     8192  board.o(.bss)
    rt_heap                                  0x200001d4   Data        8192  board.o(.bss)
    .bss                                     0x200021d4   Section      624  usart_1.o(.bss)
    .bss                                     0x20002444   Section      128  tim_1.o(.bss)
    .bss                                     0x200024c4   Section      192  adc_1.o(.bss)
    .bss                                     0x20002584   Section      100  modbus_asc.o(.bss)
    .bss                                     0x200025e8   Section      150  modbus_ascii.o(.bss)
    .bss                                     0x20002680   Section       16  iwdg.o(.bss)
    .bss                                     0x20002690   Section       12  inflash.o(.bss)
    .bss                                     0x2000269c   Section      400  idle.o(.bss)
    idle                                     0x2000269c   Data         144  idle.o(.bss)
    rt_thread_stack                          0x2000272c   Data         256  idle.o(.bss)
    .bss                                     0x2000282c   Section      128  kservice.o(.bss)
    rt_log_buf                               0x2000282c   Data         128  kservice.o(.bss)
    .bss                                     0x200028ac   Section       40  mem.o(.bss)
    heap_sem                                 0x200028ac   Data          40  mem.o(.bss)
    .bss                                     0x200028d4   Section      256  scheduler.o(.bss)
    .bss                                     0x200029d4   Section      129  shell.o(.bss)
    finsh_prompt                             0x200029d4   Data         129  shell.o(.bss)
    .bss                                     0x20002a58   Section       24  stm32g0xx_hal_flash.o(.bss)
    STACK                                    0x20002a70   Section     1024  startup_stm32g070xx.o(STACK)

    Global Symbols

    Symbol Name                              Value     Ov Type        Size  Object(Section)

    BuildAttributes$$THM_ISAv3M$S$PE$A:L22$X:L11$S22$IEEE1$IW$USESV6$~STKCKD$USESV7$~SHL$OSPACE$EBA8$MICROLIB$REQ8$PRES8$EABIv2 0x00000000   Number         0  anon$$obj.o ABSOLUTE
    __ARM_use_no_argv                        0x00000000   Number         0  main.o ABSOLUTE
    __cpp_initialize__aeabi_                  - Undefined Weak Reference
    __cxa_finalize                            - Undefined Weak Reference
    _clock_init                               - Undefined Weak Reference
    _microlib_exit                            - Undefined Weak Reference
    __Vectors_Size                           0x000000b8   Number         0  startup_stm32g070xx.o ABSOLUTE
    __Vectors                                0x08004000   Data           4  startup_stm32g070xx.o(RESET)
    __Vectors_End                            0x080040b8   Data           0  startup_stm32g070xx.o(RESET)
    __main                                   0x080040b9   Thumb Code     0  entry.o(.ARM.Collect$$$$00000000)
    _main_stk                                0x080040b9   Thumb Code     0  entry2.o(.ARM.Collect$$$$00000001)
    _main_scatterload                        0x080040bd   Thumb Code     0  entry5.o(.ARM.Collect$$$$00000004)
    __main_after_scatterload                 0x080040c1   Thumb Code     0  entry5.o(.ARM.Collect$$$$00000004)
    _main_clock                              0x080040c1   Thumb Code     0  entry7b.o(.ARM.Collect$$$$00000008)
    _main_cpp_init                           0x080040c1   Thumb Code     0  entry8b.o(.ARM.Collect$$$$0000000A)
    _main_init                               0x080040c1   Thumb Code     0  entry9a.o(.ARM.Collect$$$$0000000B)
    __rt_final_cpp                           0x080040c9   Thumb Code     0  entry10a.o(.ARM.Collect$$$$0000000D)
    __rt_final_exit                          0x080040c9   Thumb Code     0  entry11a.o(.ARM.Collect$$$$0000000F)
    Reset_Handler                            0x080040cd   Thumb Code     8  startup_stm32g070xx.o(.text)
    ADC1_IRQHandler                          0x080040df   Thumb Code     0  startup_stm32g070xx.o(.text)
    DMA1_Ch4_7_DMAMUX1_OVR_IRQHandler        0x080040df   Thumb Code     0  startup_stm32g070xx.o(.text)
    EXTI0_1_IRQHandler                       0x080040df   Thumb Code     0  startup_stm32g070xx.o(.text)
    EXTI2_3_IRQHandler                       0x080040df   Thumb Code     0  startup_stm32g070xx.o(.text)
    EXTI4_15_IRQHandler                      0x080040df   Thumb Code     0  startup_stm32g070xx.o(.text)
    FLASH_IRQHandler                         0x080040df   Thumb Code     0  startup_stm32g070xx.o(.text)
    I2C1_IRQHandler                          0x080040df   Thumb Code     0  startup_stm32g070xx.o(.text)
    I2C2_IRQHandler                          0x080040df   Thumb Code     0  startup_stm32g070xx.o(.text)
    RCC_IRQHandler                           0x080040df   Thumb Code     0  startup_stm32g070xx.o(.text)
    RTC_TAMP_IRQHandler                      0x080040df   Thumb Code     0  startup_stm32g070xx.o(.text)
    SPI1_IRQHandler                          0x080040df   Thumb Code     0  startup_stm32g070xx.o(.text)
    SPI2_IRQHandler                          0x080040df   Thumb Code     0  startup_stm32g070xx.o(.text)
    TIM14_IRQHandler                         0x080040df   Thumb Code     0  startup_stm32g070xx.o(.text)
    TIM15_IRQHandler                         0x080040df   Thumb Code     0  startup_stm32g070xx.o(.text)
    TIM16_IRQHandler                         0x080040df   Thumb Code     0  startup_stm32g070xx.o(.text)
    TIM17_IRQHandler                         0x080040df   Thumb Code     0  startup_stm32g070xx.o(.text)
    TIM1_BRK_UP_TRG_COM_IRQHandler           0x080040df   Thumb Code     0  startup_stm32g070xx.o(.text)
    TIM1_CC_IRQHandler                       0x080040df   Thumb Code     0  startup_stm32g070xx.o(.text)
    TIM6_IRQHandler                          0x080040df   Thumb Code     0  startup_stm32g070xx.o(.text)
    TIM7_IRQHandler                          0x080040df   Thumb Code     0  startup_stm32g070xx.o(.text)
    USART2_IRQHandler                        0x080040df   Thumb Code     0  startup_stm32g070xx.o(.text)
    USART3_4_IRQHandler                      0x080040df   Thumb Code     0  startup_stm32g070xx.o(.text)
    WWDG_IRQHandler                          0x080040df   Thumb Code     0  startup_stm32g070xx.o(.text)
    rt_hw_interrupt_disable                  0x080040e9   Thumb Code     8  context_rvds.o(.text)
    rt_hw_interrupt_enable                   0x080040f1   Thumb Code     6  context_rvds.o(.text)
    rt_hw_context_switch                     0x080040f7   Thumb Code    28  context_rvds.o(.text)
    rt_hw_context_switch_interrupt           0x080040f7   Thumb Code     0  context_rvds.o(.text)
    PendSV_Handler                           0x08004113   Thumb Code    84  context_rvds.o(.text)
    rt_hw_context_switch_to                  0x08004167   Thumb Code    44  context_rvds.o(.text)
    rt_hw_interrupt_thread_switch            0x08004193   Thumb Code     2  context_rvds.o(.text)
    HardFault_Handler                        0x08004195   Thumb Code    12  context_rvds.o(.text)
    __aeabi_uidiv                            0x080041c1   Thumb Code     0  uidiv.o(.text)
    __aeabi_uidivmod                         0x080041c1   Thumb Code    44  uidiv.o(.text)
    __aeabi_idiv                             0x080041ed   Thumb Code     0  idiv.o(.text)
    __aeabi_idivmod                          0x080041ed   Thumb Code    40  idiv.o(.text)
    __aeabi_memcpy                           0x08004215   Thumb Code    36  memcpya.o(.text)
    __aeabi_memcpy4                          0x08004215   Thumb Code     0  memcpya.o(.text)
    __aeabi_memcpy8                          0x08004215   Thumb Code     0  memcpya.o(.text)
    __aeabi_memset                           0x08004239   Thumb Code    14  memseta.o(.text)
    __aeabi_memset4                          0x08004239   Thumb Code     0  memseta.o(.text)
    __aeabi_memset8                          0x08004239   Thumb Code     0  memseta.o(.text)
    __aeabi_memclr                           0x08004247   Thumb Code     4  memseta.o(.text)
    __aeabi_memclr4                          0x08004247   Thumb Code     0  memseta.o(.text)
    __aeabi_memclr8                          0x08004247   Thumb Code     0  memseta.o(.text)
    _memset$wrapper                          0x0800424b   Thumb Code    18  memseta.o(.text)
    strcat                                   0x0800425d   Thumb Code    24  strcat.o(.text)
    strncpy                                  0x08004275   Thumb Code    26  strncpy.o(.text)
    strlen                                   0x0800428f   Thumb Code    14  strlen.o(.text)
    strcmp                                   0x0800429d   Thumb Code    28  strcmp.o(.text)
    strcpy                                   0x080042b9   Thumb Code    18  strcpy.o(.text)
    strncmp                                  0x080042cb   Thumb Code    30  strncmp.o(.text)
    __scatterload                            0x080042e9   Thumb Code    28  init.o(.text)
    __scatterload_rt2                        0x080042e9   Thumb Code     0  init.o(.text)
    __decompress                             0x0800430d   Thumb Code     0  __dczerorl2.o(.text)
    __decompress1                            0x0800430d   Thumb Code    86  __dczerorl2.o(.text)
    main                                     0x08004363   Thumb Code    10  components.o(i.$Sub$$main)
    DMA1_Channel1_IRQHandler                 0x0800436d   Thumb Code    10  stm32g0xx_it.o(i.DMA1_Channel1_IRQHandler)
    DMA1_Channel2_3_IRQHandler               0x0800437d   Thumb Code    16  stm32g0xx_it.o(i.DMA1_Channel2_3_IRQHandler)
    Error_Handler                            0x08004439   Thumb Code     2  main.o(i.Error_Handler)
    FLASH_PageErase                          0x08004455   Thumb Code    30  stm32g0xx_hal_flash_ex.o(i.FLASH_PageErase)
    FLASH_WaitForLastOperation               0x080044f5   Thumb Code   132  stm32g0xx_hal_flash.o(i.FLASH_WaitForLastOperation)
    FlashPageErase                           0x08004585   Thumb Code    62  inflash.o(i.FlashPageErase)
    FlashReadNWord                           0x080045d5   Thumb Code    40  inflash.o(i.FlashReadNWord)
    FlashReadWord                            0x080045fd   Thumb Code     6  inflash.o(i.FlashReadWord)
    FlashWriteDoubleWord                     0x08004605   Thumb Code    86  inflash.o(i.FlashWriteDoubleWord)
    GetPage                                  0x08004661   Thumb Code    12  inflash.o(i.GetPage)
    HAL_ADC_AnalogWDGConfig                  0x0800466d   Thumb Code  1158  stm32g0xx_hal_adc.o(i.HAL_ADC_AnalogWDGConfig)
    HAL_ADC_ConfigChannel                    0x08004af9   Thumb Code   832  stm32g0xx_hal_adc.o(i.HAL_ADC_ConfigChannel)
    HAL_ADC_Init                             0x08004e55   Thumb Code   664  stm32g0xx_hal_adc.o(i.HAL_ADC_Init)
    HAL_ADC_MspInit                          0x0800510d   Thumb Code   170  adc_1.o(i.HAL_ADC_MspInit)
    HAL_DMA_Abort                            0x080051c9   Thumb Code   146  stm32g0xx_hal_dma.o(i.HAL_DMA_Abort)
    HAL_DMA_Abort_IT                         0x08005261   Thumb Code   174  stm32g0xx_hal_dma.o(i.HAL_DMA_Abort_IT)
    HAL_DMA_GetError                         0x08005315   Thumb Code     6  stm32g0xx_hal_dma.o(i.HAL_DMA_GetError)
    HAL_DMA_IRQHandler                       0x0800531d   Thumb Code   282  stm32g0xx_hal_dma.o(i.HAL_DMA_IRQHandler)
    HAL_DMA_Init                             0x0800543d   Thumb Code   178  stm32g0xx_hal_dma.o(i.HAL_DMA_Init)
    HAL_DMA_Start_IT                         0x080054f9   Thumb Code   210  stm32g0xx_hal_dma.o(i.HAL_DMA_Start_IT)
    HAL_Delay                                0x080055cd   Thumb Code    38  stm32g0xx_hal.o(i.HAL_Delay)
    HAL_FLASHEx_Erase                        0x080055f9   Thumb Code   142  stm32g0xx_hal_flash_ex.o(i.HAL_FLASHEx_Erase)
    HAL_FLASH_Lock                           0x08005691   Thumb Code    30  stm32g0xx_hal_flash.o(i.HAL_FLASH_Lock)
    HAL_FLASH_Program                        0x080056b5   Thumb Code   110  stm32g0xx_hal_flash.o(i.HAL_FLASH_Program)
    HAL_FLASH_Unlock                         0x0800572d   Thumb Code    40  stm32g0xx_hal_flash.o(i.HAL_FLASH_Unlock)
    HAL_GPIO_Init                            0x08005761   Thumb Code   448  stm32g0xx_hal_gpio.o(i.HAL_GPIO_Init)
    HAL_GPIO_TogglePin                       0x08005931   Thumb Code    16  stm32g0xx_hal_gpio.o(i.HAL_GPIO_TogglePin)
    HAL_GPIO_WritePin                        0x08005941   Thumb Code    12  stm32g0xx_hal_gpio.o(i.HAL_GPIO_WritePin)
    HAL_GetTick                              0x0800594d   Thumb Code     6  stm32g0xx_hal.o(i.HAL_GetTick)
    HAL_IWDG_Init                            0x08005959   Thumb Code    94  stm32g0xx_hal_iwdg.o(i.HAL_IWDG_Init)
    HAL_Init                                 0x080059c5   Thumb Code    40  stm32g0xx_hal.o(i.HAL_Init)
    HAL_InitTick                             0x080059f1   Thumb Code    82  stm32g0xx_hal.o(i.HAL_InitTick)
    HAL_MspInit                              0x08005a51   Thumb Code    64  stm32g0xx_hal_msp.o(i.HAL_MspInit)
    HAL_NVIC_EnableIRQ                       0x08005a95   Thumb Code    22  stm32g0xx_hal_cortex.o(i.HAL_NVIC_EnableIRQ)
    HAL_NVIC_SetPriority                     0x08005ab1   Thumb Code    18  stm32g0xx_hal_cortex.o(i.HAL_NVIC_SetPriority)
    HAL_PWREx_ControlVoltageScaling          0x08005ac5   Thumb Code    76  stm32g0xx_hal_pwr_ex.o(i.HAL_PWREx_ControlVoltageScaling)
    HAL_RCCEx_PeriphCLKConfig                0x08005b1d   Thumb Code   504  stm32g0xx_hal_rcc_ex.o(i.HAL_RCCEx_PeriphCLKConfig)
    HAL_RCC_ClockConfig                      0x08005d21   Thumb Code   442  stm32g0xx_hal_rcc.o(i.HAL_RCC_ClockConfig)
    HAL_RCC_GetHCLKFreq                      0x08005ef5   Thumb Code     6  stm32g0xx_hal_rcc.o(i.HAL_RCC_GetHCLKFreq)
    HAL_RCC_GetPCLK1Freq                     0x08005f01   Thumb Code    32  stm32g0xx_hal_rcc.o(i.HAL_RCC_GetPCLK1Freq)
    HAL_RCC_GetSysClockFreq                  0x08005f29   Thumb Code   216  stm32g0xx_hal_rcc.o(i.HAL_RCC_GetSysClockFreq)
    HAL_RCC_OscConfig                        0x0800600d   Thumb Code  1442  stm32g0xx_hal_rcc.o(i.HAL_RCC_OscConfig)
    HAL_SYSTICK_Config                       0x080065c1   Thumb Code    46  stm32g0xx_hal_cortex.o(i.HAL_SYSTICK_Config)
    HAL_TIMEx_Break2Callback                 0x080065f9   Thumb Code     2  stm32g0xx_hal_tim_ex.o(i.HAL_TIMEx_Break2Callback)
    HAL_TIMEx_BreakCallback                  0x080065fb   Thumb Code     2  stm32g0xx_hal_tim_ex.o(i.HAL_TIMEx_BreakCallback)
    HAL_TIMEx_CommutCallback                 0x080065fd   Thumb Code     2  stm32g0xx_hal_tim_ex.o(i.HAL_TIMEx_CommutCallback)
    HAL_TIMEx_ConfigBreakDeadTime            0x08006601   Thumb Code   252  stm32g0xx_hal_tim_ex.o(i.HAL_TIMEx_ConfigBreakDeadTime)
    HAL_TIMEx_MasterConfigSynchronization    0x08006701   Thumb Code   116  stm32g0xx_hal_tim_ex.o(i.HAL_TIMEx_MasterConfigSynchronization)
    HAL_TIM_Base_Init                        0x08006779   Thumb Code    56  stm32g0xx_hal_tim.o(i.HAL_TIM_Base_Init)
    HAL_TIM_Base_MspInit                     0x080067b1   Thumb Code    58  tim_1.o(i.HAL_TIM_Base_MspInit)
    HAL_TIM_Base_Start_IT                    0x080067f5   Thumb Code    50  stm32g0xx_hal_tim.o(i.HAL_TIM_Base_Start_IT)
    HAL_TIM_ConfigClockSource                0x0800682d   Thumb Code   268  stm32g0xx_hal_tim.o(i.HAL_TIM_ConfigClockSource)
    HAL_TIM_IC_CaptureCallback               0x0800693d   Thumb Code     2  stm32g0xx_hal_tim.o(i.HAL_TIM_IC_CaptureCallback)
    HAL_TIM_IRQHandler                       0x08006941   Thumb Code   498  stm32g0xx_hal_tim.o(i.HAL_TIM_IRQHandler)
    HAL_TIM_OC_DelayElapsedCallback          0x08006b39   Thumb Code     2  stm32g0xx_hal_tim.o(i.HAL_TIM_OC_DelayElapsedCallback)
    HAL_TIM_PWM_PulseFinishedCallback        0x08006b3b   Thumb Code     2  stm32g0xx_hal_tim.o(i.HAL_TIM_PWM_PulseFinishedCallback)
    HAL_TIM_PeriodElapsedCallback            0x08006b3d   Thumb Code   234  tim_1.o(i.HAL_TIM_PeriodElapsedCallback)
    HAL_TIM_TriggerCallback                  0x08006c59   Thumb Code     2  stm32g0xx_hal_tim.o(i.HAL_TIM_TriggerCallback)
    HAL_UARTEx_DisableFifoMode               0x08006c5b   Thumb Code    84  stm32g0xx_hal_uart_ex.o(i.HAL_UARTEx_DisableFifoMode)
    HAL_UARTEx_RxFifoFullCallback            0x08006caf   Thumb Code     2  stm32g0xx_hal_uart_ex.o(i.HAL_UARTEx_RxFifoFullCallback)
    HAL_UARTEx_SetRxFifoThreshold            0x08006cb1   Thumb Code    96  stm32g0xx_hal_uart_ex.o(i.HAL_UARTEx_SetRxFifoThreshold)
    HAL_UARTEx_SetTxFifoThreshold            0x08006d11   Thumb Code    94  stm32g0xx_hal_uart_ex.o(i.HAL_UARTEx_SetTxFifoThreshold)
    HAL_UARTEx_TxFifoEmptyCallback           0x08006d6f   Thumb Code     2  stm32g0xx_hal_uart_ex.o(i.HAL_UARTEx_TxFifoEmptyCallback)
    HAL_UARTEx_WakeupCallback                0x08006d71   Thumb Code     2  stm32g0xx_hal_uart_ex.o(i.HAL_UARTEx_WakeupCallback)
    HAL_UART_DMAStop                         0x08006d73   Thumb Code   152  stm32g0xx_hal_uart.o(i.HAL_UART_DMAStop)
    HAL_UART_ErrorCallback                   0x08006e0b   Thumb Code     2  stm32g0xx_hal_uart.o(i.HAL_UART_ErrorCallback)
    HAL_UART_IRQHandler                      0x08006e0d   Thumb Code   562  stm32g0xx_hal_uart.o(i.HAL_UART_IRQHandler)
    HAL_UART_Init                            0x08007049   Thumb Code   130  stm32g0xx_hal_uart.o(i.HAL_UART_Init)
    HAL_UART_MspInit                         0x080070cd   Thumb Code   248  usart_1.o(i.HAL_UART_MspInit)
    HAL_UART_Receive_DMA                     0x080071d9   Thumb Code   228  stm32g0xx_hal_uart.o(i.HAL_UART_Receive_DMA)
    HAL_UART_RxCpltCallback                  0x080072c9   Thumb Code     2  stm32g0xx_hal_uart.o(i.HAL_UART_RxCpltCallback)
    HAL_UART_RxHalfCpltCallback              0x080072cb   Thumb Code     2  stm32g0xx_hal_uart.o(i.HAL_UART_RxHalfCpltCallback)
    HAL_UART_Transmit_DMA                    0x080072cd   Thumb Code   212  stm32g0xx_hal_uart.o(i.HAL_UART_Transmit_DMA)
    HAL_UART_TxCpltCallback                  0x080073ad   Thumb Code     2  stm32g0xx_hal_uart.o(i.HAL_UART_TxCpltCallback)
    HAL_UART_TxHalfCpltCallback              0x080073af   Thumb Code     2  stm32g0xx_hal_uart.o(i.HAL_UART_TxHalfCpltCallback)
    MBASC_Fun03                              0x08007451   Thumb Code   452  modbus_asc.o(i.MBASC_Fun03)
    MBASC_Fun04                              0x08007625   Thumb Code   304  modbus_asc.o(i.MBASC_Fun04)
    MBASC_Fun05                              0x08007765   Thumb Code   244  modbus_asc.o(i.MBASC_Fun05)
    MBASC_Fun10                              0x08007871   Thumb Code   536  modbus_asc.o(i.MBASC_Fun10)
    MBASC_Fun2B                              0x08007a9d   Thumb Code   534  modbus_asc.o(i.MBASC_Fun2B)
    MBASC_Fun41                              0x08007cd1   Thumb Code   282  modbus_asc.o(i.MBASC_Fun41)
    MBASC_Function                           0x08007e11   Thumb Code   212  modbus_asc.o(i.MBASC_Function)
    MBASC_GetSlaveAddr                       0x08007ef9   Thumb Code     6  modbus_asc.o(i.MBASC_GetSlaveAddr)
    MBASC_SendErr                            0x08007f01   Thumb Code    60  modbus_asc.o(i.MBASC_SendErr)
    MBASC_SendMsg                            0x08007f45   Thumb Code    28  modbus_asc.o(i.MBASC_SendMsg)
    MBASC_SendMsg_NoLimit                    0x08007f61   Thumb Code    22  modbus_asc.o(i.MBASC_SendMsg_NoLimit)
    MODBUS_ASCII_AsciiPacketToRtuPacket      0x08007f77   Thumb Code    64  modbus_ascii.o(i.MODBUS_ASCII_AsciiPacketToRtuPacket)
    MODBUS_ASCII_AsciiToHex                  0x08007fb7   Thumb Code    90  modbus_ascii.o(i.MODBUS_ASCII_AsciiToHex)
    MODBUS_ASCII_CheckAscii                  0x08008011   Thumb Code    74  modbus_ascii.o(i.MODBUS_ASCII_CheckAscii)
    MODBUS_ASCII_GetLrc                      0x0800805b   Thumb Code    74  modbus_ascii.o(i.MODBUS_ASCII_GetLrc)
    MODBUS_ASCII_HandlRevData                0x080080a5   Thumb Code   198  modbus_ascii.o(i.MODBUS_ASCII_HandlRevData)
    MODBUS_ASCII_HexToAscii                  0x0800817d   Thumb Code    70  modbus_ascii.o(i.MODBUS_ASCII_HexToAscii)
    MODBUS_ASCII_RecvData                    0x080081c5   Thumb Code   124  modbus_ascii.o(i.MODBUS_ASCII_RecvData)
    MODBUS_ASCII_RtuPacketToAsciiPacket      0x0800824d   Thumb Code    40  modbus_ascii.o(i.MODBUS_ASCII_RtuPacketToAsciiPacket)
    MODBUS_ASCII_SendData                    0x08008275   Thumb Code   112  modbus_ascii.o(i.MODBUS_ASCII_SendData)
    MX_ADC1_Init                             0x080082e9   Thumb Code   204  adc_1.o(i.MX_ADC1_Init)
    MX_DMA_Init                              0x080083c9   Thumb Code    64  dma_1.o(i.MX_DMA_Init)
    MX_GPIO_Init                             0x0800840d   Thumb Code   132  led.o(i.MX_GPIO_Init)
    MX_TIM1_Init                             0x08008499   Thumb Code   150  tim_1.o(i.MX_TIM1_Init)
    MX_TIM3_Init                             0x08008539   Thumb Code   112  tim_1.o(i.MX_TIM3_Init)
    MX_USART1_UART_Init                      0x080085b9   Thumb Code   296  usart_1.o(i.MX_USART1_UART_Init)
    NMI_Handler                              0x080086f1   Thumb Code     2  stm32g0xx_it.o(i.NMI_Handler)
    ReadPara                                 0x080086f5   Thumb Code   272  para.o(i.ReadPara)
    SVC_Handler                              0x08008821   Thumb Code     2  stm32g0xx_it.o(i.SVC_Handler)
    SysTick_Handler                          0x08008823   Thumb Code    16  board.o(i.SysTick_Handler)
    SystemClock_Config                       0x08008835   Thumb Code   150  system_clock.o(i.SystemClock_Config)
    SystemInit                               0x080088d1   Thumb Code     8  system_stm32g0xx.o(i.SystemInit)
    TIM3_IRQHandler                          0x080088e1   Thumb Code    10  stm32g0xx_it.o(i.TIM3_IRQHandler)
    TIM_Base_SetConfig                       0x080088f1   Thumb Code   134  stm32g0xx_hal_tim.o(i.TIM_Base_SetConfig)
    TIM_ETR_SetConfig                        0x08008991   Thumb Code    28  stm32g0xx_hal_tim.o(i.TIM_ETR_SetConfig)
    UART_AdvFeatureConfig                    0x08008aad   Thumb Code   240  stm32g0xx_hal_uart.o(i.UART_AdvFeatureConfig)
    UART_CheckIdleState                      0x08008b9d   Thumb Code   112  stm32g0xx_hal_uart.o(i.UART_CheckIdleState)
    UART_DMA_Send                            0x08008d25   Thumb Code    28  usart_1.o(i.UART_DMA_Send)
    UART_SetConfig                           0x08008db5   Thumb Code  1688  stm32g0xx_hal_uart.o(i.UART_SetConfig)
    UART_WaitOnFlagUntilTimeout              0x08009455   Thumb Code   112  stm32g0xx_hal_uart.o(i.UART_WaitOnFlagUntilTimeout)
    USART1_IRQHandler                        0x080094c5   Thumb Code   102  usart_1.o(i.USART1_IRQHandler)
    User_Iwdg_Init                           0x08009541   Thumb Code    32  iwdg.o(i.User_Iwdg_Init)
    Z_F_Zhuan_thread_entry                   0x08009569   Thumb Code     8  task.o(i.Z_F_Zhuan_thread_entry)
    __ARM_common_switch8                     0x08009571   Thumb Code    28  usart_1.o(i.__ARM_common_switch8)
    __rt_ffs                                 0x08009605   Thumb Code    86  kservice.o(i.__rt_ffs)
    __scatterload_copy                       0x08009661   Thumb Code    14  handlers.o(i.__scatterload_copy)
    __scatterload_null                       0x0800966f   Thumb Code     2  handlers.o(i.__scatterload_null)
    __scatterload_zeroinit                   0x08009671   Thumb Code    14  handlers.o(i.__scatterload_zeroinit)
    cmd_free                                 0x080097ef   Thumb Code    14  msh.o(i.cmd_free)
    cmd_ps                                   0x080097fd   Thumb Code    14  msh.o(i.cmd_ps)
    finsh_get_prompt                         0x0800980d   Thumb Code    88  shell.o(i.finsh_get_prompt)
    finsh_set_prompt_mode                    0x08009889   Thumb Code    30  shell.o(i.finsh_set_prompt_mode)
    finsh_system_function_init               0x080098ad   Thumb Code    10  shell.o(i.finsh_system_function_init)
    finsh_system_init                        0x080098c1   Thumb Code   104  shell.o(i.finsh_system_init)
    finsh_thread_entry                       0x08009961   Thumb Code   962  shell.o(i.finsh_thread_entry)
    hello                                    0x08009d45   Thumb Code    12  cmd.o(i.hello)
    led_thread_entry                         0x08009d65   Thumb Code    20  task.o(i.led_thread_entry)
    list                                     0x08009d7d   Thumb Code    54  cmd.o(i.list)
    list_event                               0x08009dd9   Thumb Code   202  cmd.o(i.list_event)
    list_mailbox                             0x08009fdd   Thumb Code   222  cmd.o(i.list_mailbox)
    list_mem                                 0x0800a139   Thumb Code    34  mem.o(i.list_mem)
    list_msgqueue                            0x0800a1b1   Thumb Code   214  cmd.o(i.list_msgqueue)
    list_mutex                               0x0800a2f5   Thumb Code   170  cmd.o(i.list_mutex)
    list_sem                                 0x0800a405   Thumb Code   214  cmd.o(i.list_sem)
    list_thread                              0x0800a53d   Thumb Code   302  cmd.o(i.list_thread)
    list_timer                               0x0800a729   Thumb Code   188  cmd.o(i.list_timer)
    long32Array                              0x0800a885   Thumb Code    28  common.o(i.long32Array)
    $Super$$main                             0x0800a8a1   Thumb Code    16  main.o(i.main)
    main_thread_entry                        0x0800a8b1   Thumb Code    14  components.o(i.main_thread_entry)
    msh_auto_complete                        0x0800a8c1   Thumb Code   144  msh.o(i.msh_auto_complete)
    msh_exec                                 0x0800a965   Thumb Code    86  msh.o(i.msh_exec)
    msh_help                                 0x0800aa35   Thumb Code    66  msh.o(i.msh_help)
    msh_is_used                              0x0800aaad   Thumb Code     4  msh.o(i.msh_is_used)
    rt_application_init                      0x0800add5   Thumb Code    34  components.o(i.rt_application_init)
    rt_calloc                                0x0800ae05   Thumb Code    40  mem.o(i.rt_calloc)
    rt_components_board_init                 0x0800ae2d   Thumb Code    20  components.o(i.rt_components_board_init)
    rt_components_init                       0x0800ae49   Thumb Code    20  components.o(i.rt_components_init)
    rt_enter_critical                        0x0800ae65   Thumb Code    28  scheduler.o(i.rt_enter_critical)
    rt_exit_critical                         0x0800ae85   Thumb Code    64  scheduler.o(i.rt_exit_critical)
    rt_free                                  0x0800aecd   Thumb Code   134  mem.o(i.rt_free)
    rt_heap_begin_get                        0x0800afb5   Thumb Code     4  board.o(i.rt_heap_begin_get)
    rt_heap_end_get                          0x0800afbd   Thumb Code     4  board.o(i.rt_heap_end_get)
    rt_hw_board_init                         0x0800afc5   Thumb Code    30  board.o(i.rt_hw_board_init)
    rt_hw_console_output                     0x0800afe3   Thumb Code     2  kservice.o(i.rt_hw_console_output)
    rt_hw_hard_fault_exception               0x0800afe5   Thumb Code    84  cpuport.o(i.rt_hw_hard_fault_exception)
    rt_hw_stack_init                         0x0800b0d9   Thumb Code    58  cpuport.o(i.rt_hw_stack_init)
    rt_interrupt_enter                       0x0800b119   Thumb Code    26  irq.o(i.rt_interrupt_enter)
    rt_interrupt_leave                       0x0800b139   Thumb Code    26  irq.o(i.rt_interrupt_leave)
    rt_kprintf                               0x0800b1e1   Thumb Code    46  kservice.o(i.rt_kprintf)
    rt_malloc                                0x0800b2c9   Thumb Code   334  mem.o(i.rt_malloc)
    rt_memmove                               0x0800b435   Thumb Code    66  kservice.o(i.rt_memmove)
    rt_memset                                0x0800b477   Thumb Code    76  kservice.o(i.rt_memset)
    rt_object_allocate                       0x0800b4c3   Thumb Code    80  object.o(i.rt_object_allocate)
    rt_object_delete                         0x0800b513   Thumb Code    36  object.o(i.rt_object_delete)
    rt_object_detach                         0x0800b537   Thumb Code    30  object.o(i.rt_object_detach)
    rt_object_get_information                0x0800b555   Thumb Code    32  object.o(i.rt_object_get_information)
    rt_object_init                           0x0800b579   Thumb Code    84  object.o(i.rt_object_init)
    rt_object_is_systemobject                0x0800b5cd   Thumb Code    20  object.o(i.rt_object_is_systemobject)
    rt_schedule                              0x0800b5e1   Thumb Code   106  scheduler.o(i.rt_schedule)
    rt_schedule_insert_thread                0x0800b665   Thumb Code    74  scheduler.o(i.rt_schedule_insert_thread)
    rt_schedule_remove_thread                0x0800b6b9   Thumb Code    78  scheduler.o(i.rt_schedule_remove_thread)
    rt_sem_init                              0x0800b711   Thumb Code    34  ipc.o(i.rt_sem_init)
    rt_sem_release                           0x0800b733   Thumb Code    60  ipc.o(i.rt_sem_release)
    rt_sem_take                              0x0800b76f   Thumb Code   120  ipc.o(i.rt_sem_take)
    rt_show_version                          0x0800b7e9   Thumb Code    38  kservice.o(i.rt_show_version)
    rt_strlen                                0x0800b899   Thumb Code    18  kservice.o(i.rt_strlen)
    rt_strncpy                               0x0800b8ab   Thumb Code    56  kservice.o(i.rt_strncpy)
    rt_system_heap_init                      0x0800b8e5   Thumb Code   154  mem.o(i.rt_system_heap_init)
    rt_system_scheduler_init                 0x0800b9d9   Thumb Code    52  scheduler.o(i.rt_system_scheduler_init)
    rt_system_scheduler_start                0x0800ba25   Thumb Code    36  scheduler.o(i.rt_system_scheduler_start)
    rt_system_timer_init                     0x0800ba55   Thumb Code    24  timer.o(i.rt_system_timer_init)
    rt_system_timer_thread_init              0x0800ba71   Thumb Code     2  timer.o(i.rt_system_timer_thread_init)
    rt_thread_create                         0x0800ba73   Thumb Code    80  thread.o(i.rt_thread_create)
    rt_thread_exit                           0x0800bac5   Thumb Code    80  thread.o(i.rt_thread_exit)
    rt_thread_idle_excute                    0x0800bb25   Thumb Code   142  idle.o(i.rt_thread_idle_excute)
    rt_thread_idle_init                      0x0800bbb9   Thumb Code    38  idle.o(i.rt_thread_idle_init)
    rt_thread_init                           0x0800bbf5   Thumb Code    44  thread.o(i.rt_thread_init)
    rt_thread_mdelay                         0x0800bc21   Thumb Code    20  thread.o(i.rt_thread_mdelay)
    rt_thread_resume                         0x0800bc35   Thumb Code    60  thread.o(i.rt_thread_resume)
    rt_thread_self                           0x0800bc71   Thumb Code     6  thread.o(i.rt_thread_self)
    rt_thread_sleep                          0x0800bc7d   Thumb Code    62  thread.o(i.rt_thread_sleep)
    rt_thread_startup                        0x0800bcc1   Thumb Code    48  thread.o(i.rt_thread_startup)
    rt_thread_suspend                        0x0800bcf1   Thumb Code    68  thread.o(i.rt_thread_suspend)
    rt_thread_timeout                        0x0800bd35   Thumb Code    32  thread.o(i.rt_thread_timeout)
    rt_thread_yield                          0x0800bd55   Thumb Code    92  thread.o(i.rt_thread_yield)
    rt_tick_from_millisecond                 0x0800bdb9   Thumb Code    62  clock.o(i.rt_tick_from_millisecond)
    rt_tick_get                              0x0800bdf9   Thumb Code     6  clock.o(i.rt_tick_get)
    rt_tick_increase                         0x0800be05   Thumb Code    44  clock.o(i.rt_tick_increase)
    rt_timer_check                           0x0800be35   Thumb Code   120  timer.o(i.rt_timer_check)
    rt_timer_control                         0x0800beb5   Thumb Code    60  timer.o(i.rt_timer_control)
    rt_timer_detach                          0x0800bef1   Thumb Code    32  timer.o(i.rt_timer_detach)
    rt_timer_init                            0x0800bf11   Thumb Code    38  timer.o(i.rt_timer_init)
    rt_timer_start                           0x0800bf39   Thumb Code   250  timer.o(i.rt_timer_start)
    rt_timer_stop                            0x0800c041   Thumb Code    48  timer.o(i.rt_timer_stop)
    rt_vsnprintf                             0x0800c071   Thumb Code   862  kservice.o(i.rt_vsnprintf)
    rtthread_startup                         0x0800c3e9   Thumb Code    42  components.o(i.rtthread_startup)
    system_Init                              0x0800c4c5   Thumb Code    40  system.o(i.system_Init)
    task_Init                                0x0800c4ed   Thumb Code   118  task.o(i.task_Init)
    version                                  0x0800c571   Thumb Code    10  cmd.o(i.version)
    SensorSoftVersion                        0x0800c57a   Data           8  modbus_asc.o(.constdata)
    __lowest_bit_bitmap                      0x0800c582   Data         256  kservice.o(.constdata)
    __fsym_list_mem_name                     0x0800c6a4   Data           9  mem.o(.constdata)
    __fsym_hello_name                        0x0800c6ad   Data           6  cmd.o(.constdata)
    __fsym_version_name                      0x0800c6b3   Data           8  cmd.o(.constdata)
    __fsym___cmd_version_name                0x0800c6bb   Data          14  cmd.o(.constdata)
    __fsym_list_thread_name                  0x0800c6c9   Data          12  cmd.o(.constdata)
    __fsym___cmd_list_thread_name            0x0800c6d5   Data          18  cmd.o(.constdata)
    __fsym_list_sem_name                     0x0800c6e7   Data           9  cmd.o(.constdata)
    __fsym___cmd_list_sem_name               0x0800c6f0   Data          15  cmd.o(.constdata)
    __fsym_list_event_name                   0x0800c6ff   Data          11  cmd.o(.constdata)
    __fsym___cmd_list_event_name             0x0800c70a   Data          17  cmd.o(.constdata)
    __fsym_list_mutex_name                   0x0800c71b   Data          11  cmd.o(.constdata)
    __fsym___cmd_list_mutex_name             0x0800c726   Data          17  cmd.o(.constdata)
    __fsym_list_mailbox_name                 0x0800c737   Data          13  cmd.o(.constdata)
    __fsym___cmd_list_mailbox_name           0x0800c744   Data          19  cmd.o(.constdata)
    __fsym_list_msgqueue_name                0x0800c757   Data          14  cmd.o(.constdata)
    __fsym___cmd_list_msgqueue_name          0x0800c765   Data          20  cmd.o(.constdata)
    __fsym_list_timer_name                   0x0800c779   Data          11  cmd.o(.constdata)
    __fsym___cmd_list_timer_name             0x0800c784   Data          17  cmd.o(.constdata)
    __fsym_list_name                         0x0800c795   Data           5  cmd.o(.constdata)
    __fsym___cmd_help_name                   0x0800c79a   Data          11  msh.o(.constdata)
    __fsym___cmd_ps_name                     0x0800c7a5   Data           9  msh.o(.constdata)
    __fsym___cmd_free_name                   0x0800c7ae   Data          11  msh.o(.constdata)
    AHBPrescTable                            0x0800c7bc   Data          64  system_stm32g0xx.o(.constdata)
    APBPrescTable                            0x0800c7fc   Data          32  system_stm32g0xx.o(.constdata)
    __rt_init_rti_start                      0x0800c884   Data           4  components.o(.rti_fn.0)
    __rt_init_rti_board_start                0x0800c888   Data           4  components.o(.rti_fn.0.end)
    __rt_init_rti_board_end                  0x0800c88c   Data           4  components.o(.rti_fn.1.end)
    __rt_init_finsh_system_init              0x0800c890   Data           4  shell.o(.rti_fn.6)
    __rt_init_rti_end                        0x0800c894   Data           4  components.o(.rti_fn.6.end)
    FSymTab$$Base                            0x0800c898   Number         0  mem.o(FSymTab)
    __fsym_list_mem                          0x0800c898   Data           8  mem.o(FSymTab)
    __fsym_hello                             0x0800c8a0   Data           8  cmd.o(FSymTab)
    __fsym_version                           0x0800c8a8   Data           8  cmd.o(FSymTab)
    __fsym___cmd_version                     0x0800c8b0   Data           8  cmd.o(FSymTab)
    __fsym_list_thread                       0x0800c8b8   Data           8  cmd.o(FSymTab)
    __fsym___cmd_list_thread                 0x0800c8c0   Data           8  cmd.o(FSymTab)
    __fsym_list_sem                          0x0800c8c8   Data           8  cmd.o(FSymTab)
    __fsym___cmd_list_sem                    0x0800c8d0   Data           8  cmd.o(FSymTab)
    __fsym_list_event                        0x0800c8d8   Data           8  cmd.o(FSymTab)
    __fsym___cmd_list_event                  0x0800c8e0   Data           8  cmd.o(FSymTab)
    __fsym_list_mutex                        0x0800c8e8   Data           8  cmd.o(FSymTab)
    __fsym___cmd_list_mutex                  0x0800c8f0   Data           8  cmd.o(FSymTab)
    __fsym_list_mailbox                      0x0800c8f8   Data           8  cmd.o(FSymTab)
    __fsym___cmd_list_mailbox                0x0800c900   Data           8  cmd.o(FSymTab)
    __fsym_list_msgqueue                     0x0800c908   Data           8  cmd.o(FSymTab)
    __fsym___cmd_list_msgqueue               0x0800c910   Data           8  cmd.o(FSymTab)
    __fsym_list_timer                        0x0800c918   Data           8  cmd.o(FSymTab)
    __fsym___cmd_list_timer                  0x0800c920   Data           8  cmd.o(FSymTab)
    __fsym_list                              0x0800c928   Data           8  cmd.o(FSymTab)
    __fsym___cmd_help                        0x0800c930   Data           8  msh.o(FSymTab)
    __fsym___cmd_ps                          0x0800c938   Data           8  msh.o(FSymTab)
    __fsym___cmd_free                        0x0800c940   Data           8  msh.o(FSymTab)
    FSymTab$$Limit                           0x0800c948   Number         0  msh.o(FSymTab)
    Region$$Table$$Base                      0x0800c948   Number         0  anon$$obj.o(Region$$Table)
    Region$$Table$$Limit                     0x0800c968   Number         0  anon$$obj.o(Region$$Table)
    Current_pulse                            0x20000000   Data           4  para.o(.data)
    Current_PositiveTime                     0x20000004   Data           4  para.o(.data)
    Current_NegativeTime                     0x20000008   Data           4  para.o(.data)
    User_Default_Param                       0x2000000c   Data          28  para.o(.data)
    LiquidHeight                             0x20000028   Data           4  task.o(.data)
    LiquidUnit                               0x2000002c   Data           2  task.o(.data)
    LFilCnt                                  0x2000002e   Data           1  task.o(.data)
    time_tick                                0x2000002f   Data           1  task.o(.data)
    TaskThreads                              0x20000034   Data          72  task.o(.data)
    u8SendNum                                0x2000007c   Data           1  usart_1.o(.data)
    u8SendIndex                              0x2000007d   Data           1  usart_1.o(.data)
    UART1_RXBuffLen                          0x2000007e   Data           1  usart_1.o(.data)
    UartRecvFrameOK                          0x2000007f   Data           1  usart_1.o(.data)
    rx_flag                                  0x20000080   Data           1  usart_1.o(.data)
    rx_len                                   0x20000082   Data           2  usart_1.o(.data)
    Time_1s_flag                             0x20000084   Data           1  tim_1.o(.data)
    Time_2s_flag                             0x20000085   Data           1  tim_1.o(.data)
    Time_5s_flag                             0x20000086   Data           1  tim_1.o(.data)
    Time_1min_flag                           0x20000087   Data           1  tim_1.o(.data)
    tim_cnt                                  0x20000088   Data           2  tim_1.o(.data)
    tim_1min_cnt                             0x2000008a   Data           2  tim_1.o(.data)
    first_20s                                0x2000008c   Data           1  tim_1.o(.data)
    PulseFlag                                0x2000008d   Data           1  tim_1.o(.data)
    Pulse100msCntBuf                         0x2000008e   Data           6  tim_1.o(.data)
    StartFlag                                0x20000094   Data           1  modbus_asc.o(.data)
    StartCountFlag                           0x20000095   Data           1  modbus_asc.o(.data)
    SendLen                                  0x20000096   Data           1  modbus_asc.o(.data)
    FirstPage                                0x2000009c   Data           4  inflash.o(.data)
    NbOfPages                                0x200000a0   Data           4  inflash.o(.data)
    Address                                  0x200000a4   Data           4  inflash.o(.data)
    PageError                                0x200000a8   Data           4  inflash.o(.data)
    rt_interrupt_nest                        0x200000b0   Data           1  irq.o(.data)
    rt_current_thread                        0x20000140   Data           4  scheduler.o(.data)
    rt_current_priority                      0x20000144   Data           1  scheduler.o(.data)
    rt_thread_ready_priority_group           0x20000148   Data           4  scheduler.o(.data)
    rt_thread_defunct                        0x2000014c   Data           8  scheduler.o(.data)
    rt_interrupt_from_thread                 0x20000160   Data           4  cpuport.o(.data)
    rt_interrupt_to_thread                   0x20000164   Data           4  cpuport.o(.data)
    rt_thread_switch_interrupt_flag          0x20000168   Data           4  cpuport.o(.data)
    _syscall_table_begin                     0x2000016c   Data           4  shell.o(.data)
    _syscall_table_end                       0x20000170   Data           4  shell.o(.data)
    _sysvar_table_begin                      0x20000174   Data           4  shell.o(.data)
    _sysvar_table_end                        0x20000178   Data           4  shell.o(.data)
    shell                                    0x2000017c   Data           4  shell.o(.data)
    uwTick                                   0x20000184   Data           4  stm32g0xx_hal.o(.data)
    uwTickPrio                               0x20000188   Data           4  stm32g0xx_hal.o(.data)
    uwTickFreq                               0x2000018c   Data           4  stm32g0xx_hal.o(.data)
    SystemCoreClock                          0x20000190   Data           4  system_stm32g0xx.o(.data)
    UserPara                                 0x20000194   Data          36  para.o(.bss)
    Cur_Param                                0x200001b8   Data          28  para.o(.bss)
    UART1_RXBuff                             0x200021d4   Data         150  usart_1.o(.bss)
    UART1_TXBuff                             0x2000226a   Data         150  usart_1.o(.bss)
    huart1                                   0x20002300   Data         140  usart_1.o(.bss)
    hdma_usart1_rx                           0x2000238c   Data          92  usart_1.o(.bss)
    hdma_usart1_tx                           0x200023e8   Data          92  usart_1.o(.bss)
    htim1                                    0x20002444   Data          64  tim_1.o(.bss)
    htim3                                    0x20002484   Data          64  tim_1.o(.bss)
    hadc1                                    0x200024c4   Data         100  adc_1.o(.bss)
    hdma_adc1                                0x20002528   Data          92  adc_1.o(.bss)
    SendBuf                                  0x20002584   Data         100  modbus_asc.o(.bss)
    cyAsciiBuff                              0x200025e8   Data         150  modbus_ascii.o(.bss)
    IWDG_HandleStructure                     0x20002680   Data          16  iwdg.o(.bss)
    EraseInitStruct                          0x20002690   Data          12  inflash.o(.bss)
    rt_thread_priority_table                 0x200028d4   Data         256  scheduler.o(.bss)
    pFlash                                   0x20002a58   Data          24  stm32g0xx_hal_flash.o(.bss)
    __initial_sp                             0x20002e70   Data           0  startup_stm32g070xx.o(STACK)



==============================================================================

Memory Map of the image

  Image Entry point : 0x080040b9

  Load Region LR_IROM1 (Base: 0x08004000, Size: 0x00008afc, Max: 0x0001c000, ABSOLUTE, COMPRESSED[0x000089d8])

    Execution Region ER_IROM1 (Exec base: 0x08004000, Load base: 0x08004000, Size: 0x00008968, Max: 0x0001c000, ABSOLUTE)

    Exec Addr    Load Addr    Size         Type   Attr      Idx    E Section Name        Object

    0x08004000   0x08004000   0x000000b8   Data   RO            3    RESET               startup_stm32g070xx.o
    0x080040b8   0x080040b8   0x00000000   Code   RO         5334  * .ARM.Collect$$$$00000000  mc_p.l(entry.o)
    0x080040b8   0x080040b8   0x00000004   Code   RO         5361    .ARM.Collect$$$$00000001  mc_p.l(entry2.o)
    0x080040bc   0x080040bc   0x00000004   Code   RO         5364    .ARM.Collect$$$$00000004  mc_p.l(entry5.o)
    0x080040c0   0x080040c0   0x00000000   Code   RO         5366    .ARM.Collect$$$$00000008  mc_p.l(entry7b.o)
    0x080040c0   0x080040c0   0x00000000   Code   RO         5368    .ARM.Collect$$$$0000000A  mc_p.l(entry8b.o)
    0x080040c0   0x080040c0   0x00000008   Code   RO         5369    .ARM.Collect$$$$0000000B  mc_p.l(entry9a.o)
    0x080040c8   0x080040c8   0x00000000   Code   RO         5371    .ARM.Collect$$$$0000000D  mc_p.l(entry10a.o)
    0x080040c8   0x080040c8   0x00000000   Code   RO         5373    .ARM.Collect$$$$0000000F  mc_p.l(entry11a.o)
    0x080040c8   0x080040c8   0x00000004   Code   RO         5362    .ARM.Collect$$$$00002712  mc_p.l(entry2.o)
    0x080040cc   0x080040cc   0x0000001c   Code   RO            4    .text               startup_stm32g070xx.o
    0x080040e8   0x080040e8   0x000000d8   Code   RO         2113    .text               context_rvds.o
    0x080041c0   0x080041c0   0x0000002c   Code   RO         5337    .text               mc_p.l(uidiv.o)
    0x080041ec   0x080041ec   0x00000028   Code   RO         5339    .text               mc_p.l(idiv.o)
    0x08004214   0x08004214   0x00000024   Code   RO         5343    .text               mc_p.l(memcpya.o)
    0x08004238   0x08004238   0x00000024   Code   RO         5345    .text               mc_p.l(memseta.o)
    0x0800425c   0x0800425c   0x00000018   Code   RO         5347    .text               mc_p.l(strcat.o)
    0x08004274   0x08004274   0x0000001a   Code   RO         5349    .text               mc_p.l(strncpy.o)
    0x0800428e   0x0800428e   0x0000000e   Code   RO         5351    .text               mc_p.l(strlen.o)
    0x0800429c   0x0800429c   0x0000001c   Code   RO         5353    .text               mc_p.l(strcmp.o)
    0x080042b8   0x080042b8   0x00000012   Code   RO         5355    .text               mc_p.l(strcpy.o)
    0x080042ca   0x080042ca   0x0000001e   Code   RO         5357    .text               mc_p.l(strncmp.o)
    0x080042e8   0x080042e8   0x00000024   Code   RO         5379    .text               mc_p.l(init.o)
    0x0800430c   0x0800430c   0x00000056   Code   RO         5389    .text               mc_p.l(__dczerorl2.o)
    0x08004362   0x08004362   0x0000000a   Code   RO         1031    i.$Sub$$main        components.o
    0x0800436c   0x0800436c   0x00000010   Code   RO          181    i.DMA1_Channel1_IRQHandler  stm32g0xx_it.o
    0x0800437c   0x0800437c   0x00000018   Code   RO          182    i.DMA1_Channel2_3_IRQHandler  stm32g0xx_it.o
    0x08004394   0x08004394   0x00000034   Code   RO         3118    i.DMA_CalcDMAMUXChannelBaseAndMask  stm32g0xx_hal_dma.o
    0x080043c8   0x080043c8   0x00000024   Code   RO         3119    i.DMA_CalcDMAMUXRequestGenBaseAndMask  stm32g0xx_hal_dma.o
    0x080043ec   0x080043ec   0x0000004c   Code   RO         3120    i.DMA_SetConfig     stm32g0xx_hal_dma.o
    0x08004438   0x08004438   0x00000002   Code   RO           12    i.Error_Handler     main.o
    0x0800443a   0x0800443a   0x00000002   PAD
    0x0800443c   0x0800443c   0x00000018   Code   RO         3027    i.FLASH_MassErase   stm32g0xx_hal_flash_ex.o
    0x08004454   0x08004454   0x00000024   Code   RO         3033    i.FLASH_PageErase   stm32g0xx_hal_flash_ex.o
    0x08004478   0x08004478   0x00000028   Code   RO         2921    i.FLASH_Program_DoubleWord  stm32g0xx_hal_flash.o
    0x080044a0   0x080044a0   0x00000054   Code   RO         2922    i.FLASH_Program_Fast  stm32g0xx_hal_flash.o
    0x080044f4   0x080044f4   0x00000090   Code   RO         2923    i.FLASH_WaitForLastOperation  stm32g0xx_hal_flash.o
    0x08004584   0x08004584   0x00000050   Code   RO          924    i.FlashPageErase    inflash.o
    0x080045d4   0x080045d4   0x00000028   Code   RO          927    i.FlashReadNWord    inflash.o
    0x080045fc   0x080045fc   0x00000006   Code   RO          928    i.FlashReadWord     inflash.o
    0x08004602   0x08004602   0x00000002   PAD
    0x08004604   0x08004604   0x0000005c   Code   RO          929    i.FlashWriteDoubleWord  inflash.o
    0x08004660   0x08004660   0x0000000c   Code   RO          931    i.GetPage           inflash.o
    0x0800466c   0x0800466c   0x0000048c   Code   RO         2458    i.HAL_ADC_AnalogWDGConfig  stm32g0xx_hal_adc.o
    0x08004af8   0x08004af8   0x0000035c   Code   RO         2459    i.HAL_ADC_ConfigChannel  stm32g0xx_hal_adc.o
    0x08004e54   0x08004e54   0x000002b8   Code   RO         2468    i.HAL_ADC_Init      stm32g0xx_hal_adc.o
    0x0800510c   0x0800510c   0x000000bc   Code   RO          642    i.HAL_ADC_MspInit   adc_1.o
    0x080051c8   0x080051c8   0x00000098   Code   RO         3121    i.HAL_DMA_Abort     stm32g0xx_hal_dma.o
    0x08005260   0x08005260   0x000000b4   Code   RO         3122    i.HAL_DMA_Abort_IT  stm32g0xx_hal_dma.o
    0x08005314   0x08005314   0x00000006   Code   RO         3124    i.HAL_DMA_GetError  stm32g0xx_hal_dma.o
    0x0800531a   0x0800531a   0x00000002   PAD
    0x0800531c   0x0800531c   0x00000120   Code   RO         3126    i.HAL_DMA_IRQHandler  stm32g0xx_hal_dma.o
    0x0800543c   0x0800543c   0x000000bc   Code   RO         3127    i.HAL_DMA_Init      stm32g0xx_hal_dma.o
    0x080054f8   0x080054f8   0x000000d2   Code   RO         3131    i.HAL_DMA_Start_IT  stm32g0xx_hal_dma.o
    0x080055ca   0x080055ca   0x00000002   PAD
    0x080055cc   0x080055cc   0x0000002c   Code   RO         3576    i.HAL_Delay         stm32g0xx_hal.o
    0x080055f8   0x080055f8   0x00000098   Code   RO         3034    i.HAL_FLASHEx_Erase  stm32g0xx_hal_flash_ex.o
    0x08005690   0x08005690   0x00000024   Code   RO         2927    i.HAL_FLASH_Lock    stm32g0xx_hal_flash.o
    0x080056b4   0x080056b4   0x00000078   Code   RO         2932    i.HAL_FLASH_Program  stm32g0xx_hal_flash.o
    0x0800572c   0x0800572c   0x00000034   Code   RO         2934    i.HAL_FLASH_Unlock  stm32g0xx_hal_flash.o
    0x08005760   0x08005760   0x000001d0   Code   RO         2388    i.HAL_GPIO_Init     stm32g0xx_hal_gpio.o
    0x08005930   0x08005930   0x00000010   Code   RO         2391    i.HAL_GPIO_TogglePin  stm32g0xx_hal_gpio.o
    0x08005940   0x08005940   0x0000000c   Code   RO         2392    i.HAL_GPIO_WritePin  stm32g0xx_hal_gpio.o
    0x0800594c   0x0800594c   0x0000000c   Code   RO         3580    i.HAL_GetTick       stm32g0xx_hal.o
    0x08005958   0x08005958   0x0000006c   Code   RO         5277    i.HAL_IWDG_Init     stm32g0xx_hal_iwdg.o
    0x080059c4   0x080059c4   0x0000002c   Code   RO         3587    i.HAL_Init          stm32g0xx_hal.o
    0x080059f0   0x080059f0   0x00000060   Code   RO         3588    i.HAL_InitTick      stm32g0xx_hal.o
    0x08005a50   0x08005a50   0x00000044   Code   RO          229    i.HAL_MspInit       stm32g0xx_hal_msp.o
    0x08005a94   0x08005a94   0x0000001c   Code   RO         3464    i.HAL_NVIC_EnableIRQ  stm32g0xx_hal_cortex.o
    0x08005ab0   0x08005ab0   0x00000012   Code   RO         3468    i.HAL_NVIC_SetPriority  stm32g0xx_hal_cortex.o
    0x08005ac2   0x08005ac2   0x00000002   PAD
    0x08005ac4   0x08005ac4   0x00000058   Code   RO         3349    i.HAL_PWREx_ControlVoltageScaling  stm32g0xx_hal_pwr_ex.o
    0x08005b1c   0x08005b1c   0x00000204   Code   RO         2878    i.HAL_RCCEx_PeriphCLKConfig  stm32g0xx_hal_rcc_ex.o
    0x08005d20   0x08005d20   0x000001d4   Code   RO         2768    i.HAL_RCC_ClockConfig  stm32g0xx_hal_rcc.o
    0x08005ef4   0x08005ef4   0x0000000c   Code   RO         2774    i.HAL_RCC_GetHCLKFreq  stm32g0xx_hal_rcc.o
    0x08005f00   0x08005f00   0x00000028   Code   RO         2776    i.HAL_RCC_GetPCLK1Freq  stm32g0xx_hal_rcc.o
    0x08005f28   0x08005f28   0x000000e4   Code   RO         2777    i.HAL_RCC_GetSysClockFreq  stm32g0xx_hal_rcc.o
    0x0800600c   0x0800600c   0x000005b4   Code   RO         2781    i.HAL_RCC_OscConfig  stm32g0xx_hal_rcc.o
    0x080065c0   0x080065c0   0x00000038   Code   RO         3472    i.HAL_SYSTICK_Config  stm32g0xx_hal_cortex.o
    0x080065f8   0x080065f8   0x00000002   Code   RO         4521    i.HAL_TIMEx_Break2Callback  stm32g0xx_hal_tim_ex.o
    0x080065fa   0x080065fa   0x00000002   Code   RO         4522    i.HAL_TIMEx_BreakCallback  stm32g0xx_hal_tim_ex.o
    0x080065fc   0x080065fc   0x00000002   Code   RO         4523    i.HAL_TIMEx_CommutCallback  stm32g0xx_hal_tim_ex.o
    0x080065fe   0x080065fe   0x00000002   PAD
    0x08006600   0x08006600   0x00000100   Code   RO         4525    i.HAL_TIMEx_ConfigBreakDeadTime  stm32g0xx_hal_tim_ex.o
    0x08006700   0x08006700   0x00000078   Code   RO         4543    i.HAL_TIMEx_MasterConfigSynchronization  stm32g0xx_hal_tim_ex.o
    0x08006778   0x08006778   0x00000038   Code   RO         3829    i.HAL_TIM_Base_Init  stm32g0xx_hal_tim.o
    0x080067b0   0x080067b0   0x00000044   Code   RO          544    i.HAL_TIM_Base_MspInit  tim_1.o
    0x080067f4   0x080067f4   0x00000038   Code   RO         3834    i.HAL_TIM_Base_Start_IT  stm32g0xx_hal_tim.o
    0x0800682c   0x0800682c   0x00000110   Code   RO         3838    i.HAL_TIM_ConfigClockSource  stm32g0xx_hal_tim.o
    0x0800693c   0x0800693c   0x00000002   Code   RO         3858    i.HAL_TIM_IC_CaptureCallback  stm32g0xx_hal_tim.o
    0x0800693e   0x0800693e   0x00000002   PAD
    0x08006940   0x08006940   0x000001f8   Code   RO         3872    i.HAL_TIM_IRQHandler  stm32g0xx_hal_tim.o
    0x08006b38   0x08006b38   0x00000002   Code   RO         3875    i.HAL_TIM_OC_DelayElapsedCallback  stm32g0xx_hal_tim.o
    0x08006b3a   0x08006b3a   0x00000002   Code   RO         3902    i.HAL_TIM_PWM_PulseFinishedCallback  stm32g0xx_hal_tim.o
    0x08006b3c   0x08006b3c   0x0000011c   Code   RO          545    i.HAL_TIM_PeriodElapsedCallback  tim_1.o
    0x08006c58   0x08006c58   0x00000002   Code   RO         3915    i.HAL_TIM_TriggerCallback  stm32g0xx_hal_tim.o
    0x08006c5a   0x08006c5a   0x00000054   Code   RO         5183    i.HAL_UARTEx_DisableFifoMode  stm32g0xx_hal_uart_ex.o
    0x08006cae   0x08006cae   0x00000002   Code   RO         5187    i.HAL_UARTEx_RxFifoFullCallback  stm32g0xx_hal_uart_ex.o
    0x08006cb0   0x08006cb0   0x00000060   Code   RO         5188    i.HAL_UARTEx_SetRxFifoThreshold  stm32g0xx_hal_uart_ex.o
    0x08006d10   0x08006d10   0x0000005e   Code   RO         5189    i.HAL_UARTEx_SetTxFifoThreshold  stm32g0xx_hal_uart_ex.o
    0x08006d6e   0x08006d6e   0x00000002   Code   RO         5191    i.HAL_UARTEx_TxFifoEmptyCallback  stm32g0xx_hal_uart_ex.o
    0x08006d70   0x08006d70   0x00000002   Code   RO         5192    i.HAL_UARTEx_WakeupCallback  stm32g0xx_hal_uart_ex.o
    0x08006d72   0x08006d72   0x00000098   Code   RO         4824    i.HAL_UART_DMAStop  stm32g0xx_hal_uart.o
    0x08006e0a   0x08006e0a   0x00000002   Code   RO         4826    i.HAL_UART_ErrorCallback  stm32g0xx_hal_uart.o
    0x08006e0c   0x08006e0c   0x0000023c   Code   RO         4829    i.HAL_UART_IRQHandler  stm32g0xx_hal_uart.o
    0x08007048   0x08007048   0x00000082   Code   RO         4830    i.HAL_UART_Init     stm32g0xx_hal_uart.o
    0x080070ca   0x080070ca   0x00000002   PAD
    0x080070cc   0x080070cc   0x0000010c   Code   RO          474    i.HAL_UART_MspInit  usart_1.o
    0x080071d8   0x080071d8   0x000000f0   Code   RO         4834    i.HAL_UART_Receive_DMA  stm32g0xx_hal_uart.o
    0x080072c8   0x080072c8   0x00000002   Code   RO         4836    i.HAL_UART_RxCpltCallback  stm32g0xx_hal_uart.o
    0x080072ca   0x080072ca   0x00000002   Code   RO         4837    i.HAL_UART_RxHalfCpltCallback  stm32g0xx_hal_uart.o
    0x080072cc   0x080072cc   0x000000e0   Code   RO         4839    i.HAL_UART_Transmit_DMA  stm32g0xx_hal_uart.o
    0x080073ac   0x080073ac   0x00000002   Code   RO         4841    i.HAL_UART_TxCpltCallback  stm32g0xx_hal_uart.o
    0x080073ae   0x080073ae   0x00000002   Code   RO         4842    i.HAL_UART_TxHalfCpltCallback  stm32g0xx_hal_uart.o
    0x080073b0   0x080073b0   0x0000000c   Code   RO         2482    i.LL_ADC_GetCommonPathInternalCh  stm32g0xx_hal_adc.o
    0x080073bc   0x080073bc   0x00000010   Code   RO         2484    i.LL_ADC_IsEnabled  stm32g0xx_hal_adc.o
    0x080073cc   0x080073cc   0x0000000e   Code   RO         2485    i.LL_ADC_IsInternalRegulatorEnabled  stm32g0xx_hal_adc.o
    0x080073da   0x080073da   0x0000000c   Code   RO         2486    i.LL_ADC_REG_IsConversionOngoing  stm32g0xx_hal_adc.o
    0x080073e6   0x080073e6   0x00000002   PAD
    0x080073e8   0x080073e8   0x0000003c   Code   RO         2489    i.LL_ADC_SetAnalogWDMonitChannels  stm32g0xx_hal_adc.o
    0x08007424   0x08007424   0x0000000e   Code   RO         2490    i.LL_ADC_SetCommonPathInternalCh  stm32g0xx_hal_adc.o
    0x08007432   0x08007432   0x0000001e   Code   RO         2491    i.LL_ADC_SetSamplingTimeCommonChannels  stm32g0xx_hal_adc.o
    0x08007450   0x08007450   0x000001d4   Code   RO          679    i.MBASC_Fun03       modbus_asc.o
    0x08007624   0x08007624   0x00000140   Code   RO          680    i.MBASC_Fun04       modbus_asc.o
    0x08007764   0x08007764   0x0000010c   Code   RO          681    i.MBASC_Fun05       modbus_asc.o
    0x08007870   0x08007870   0x0000022c   Code   RO          682    i.MBASC_Fun10       modbus_asc.o
    0x08007a9c   0x08007a9c   0x00000234   Code   RO          683    i.MBASC_Fun2B       modbus_asc.o
    0x08007cd0   0x08007cd0   0x00000140   Code   RO          684    i.MBASC_Fun41       modbus_asc.o
    0x08007e10   0x08007e10   0x000000e8   Code   RO          685    i.MBASC_Function    modbus_asc.o
    0x08007ef8   0x08007ef8   0x00000006   Code   RO          686    i.MBASC_GetSlaveAddr  modbus_asc.o
    0x08007efe   0x08007efe   0x00000002   PAD
    0x08007f00   0x08007f00   0x00000044   Code   RO          687    i.MBASC_SendErr     modbus_asc.o
    0x08007f44   0x08007f44   0x0000001c   Code   RO          688    i.MBASC_SendMsg     modbus_asc.o
    0x08007f60   0x08007f60   0x00000016   Code   RO          689    i.MBASC_SendMsg_NoLimit  modbus_asc.o
    0x08007f76   0x08007f76   0x00000040   Code   RO          771    i.MODBUS_ASCII_AsciiPacketToRtuPacket  modbus_ascii.o
    0x08007fb6   0x08007fb6   0x0000005a   Code   RO          772    i.MODBUS_ASCII_AsciiToHex  modbus_ascii.o
    0x08008010   0x08008010   0x0000004a   Code   RO          773    i.MODBUS_ASCII_CheckAscii  modbus_ascii.o
    0x0800805a   0x0800805a   0x0000004a   Code   RO          774    i.MODBUS_ASCII_GetLrc  modbus_ascii.o
    0x080080a4   0x080080a4   0x000000d8   Code   RO          775    i.MODBUS_ASCII_HandlRevData  modbus_ascii.o
    0x0800817c   0x0800817c   0x00000046   Code   RO          776    i.MODBUS_ASCII_HexToAscii  modbus_ascii.o
    0x080081c2   0x080081c2   0x00000002   PAD
    0x080081c4   0x080081c4   0x00000088   Code   RO          777    i.MODBUS_ASCII_RecvData  modbus_ascii.o
    0x0800824c   0x0800824c   0x00000028   Code   RO          778    i.MODBUS_ASCII_RtuPacketToAsciiPacket  modbus_ascii.o
    0x08008274   0x08008274   0x00000074   Code   RO          779    i.MODBUS_ASCII_SendData  modbus_ascii.o
    0x080082e8   0x080082e8   0x000000e0   Code   RO          643    i.MX_ADC1_Init      adc_1.o
    0x080083c8   0x080083c8   0x00000044   Code   RO          621    i.MX_DMA_Init       dma_1.o
    0x0800840c   0x0800840c   0x0000008c   Code   RO          601    i.MX_GPIO_Init      led.o
    0x08008498   0x08008498   0x000000a0   Code   RO          546    i.MX_TIM1_Init      tim_1.o
    0x08008538   0x08008538   0x00000080   Code   RO          547    i.MX_TIM3_Init      tim_1.o
    0x080085b8   0x080085b8   0x00000138   Code   RO          475    i.MX_USART1_UART_Init  usart_1.o
    0x080086f0   0x080086f0   0x00000002   Code   RO          183    i.NMI_Handler       stm32g0xx_it.o
    0x080086f2   0x080086f2   0x00000002   PAD
    0x080086f4   0x080086f4   0x0000012c   Code   RO          252    i.ReadPara          para.o
    0x08008820   0x08008820   0x00000002   Code   RO          184    i.SVC_Handler       stm32g0xx_it.o
    0x08008822   0x08008822   0x00000010   Code   RO          313    i.SysTick_Handler   board.o
    0x08008832   0x08008832   0x00000002   PAD
    0x08008834   0x08008834   0x0000009c   Code   RO          406    i.SystemClock_Config  system_clock.o
    0x080088d0   0x080088d0   0x00000010   Code   RO         5304    i.SystemInit        system_stm32g0xx.o
    0x080088e0   0x080088e0   0x00000010   Code   RO          185    i.TIM3_IRQHandler   stm32g0xx_it.o
    0x080088f0   0x080088f0   0x000000a0   Code   RO         3917    i.TIM_Base_SetConfig  stm32g0xx_hal_tim.o
    0x08008990   0x08008990   0x0000001c   Code   RO         3928    i.TIM_ETR_SetConfig  stm32g0xx_hal_tim.o
    0x080089ac   0x080089ac   0x00000018   Code   RO         3929    i.TIM_ITRx_SetConfig  stm32g0xx_hal_tim.o
    0x080089c4   0x080089c4   0x00000032   Code   RO         3937    i.TIM_TI1_ConfigInputStage  stm32g0xx_hal_tim.o
    0x080089f6   0x080089f6   0x00000032   Code   RO         3939    i.TIM_TI2_ConfigInputStage  stm32g0xx_hal_tim.o
    0x08008a28   0x08008a28   0x00000084   Code   RO         5193    i.UARTEx_SetNbDataToProcess  stm32g0xx_hal_uart_ex.o
    0x08008aac   0x08008aac   0x000000f0   Code   RO         4843    i.UART_AdvFeatureConfig  stm32g0xx_hal_uart.o
    0x08008b9c   0x08008b9c   0x00000074   Code   RO         4844    i.UART_CheckIdleState  stm32g0xx_hal_uart.o
    0x08008c10   0x08008c10   0x00000018   Code   RO         4845    i.UART_DMAAbortOnError  stm32g0xx_hal_uart.o
    0x08008c28   0x08008c28   0x0000005a   Code   RO         4846    i.UART_DMAError     stm32g0xx_hal_uart.o
    0x08008c82   0x08008c82   0x0000004c   Code   RO         4847    i.UART_DMAReceiveCplt  stm32g0xx_hal_uart.o
    0x08008cce   0x08008cce   0x0000000e   Code   RO         4849    i.UART_DMARxHalfCplt  stm32g0xx_hal_uart.o
    0x08008cdc   0x08008cdc   0x0000003a   Code   RO         4851    i.UART_DMATransmitCplt  stm32g0xx_hal_uart.o
    0x08008d16   0x08008d16   0x0000000e   Code   RO         4853    i.UART_DMATxHalfCplt  stm32g0xx_hal_uart.o
    0x08008d24   0x08008d24   0x00000020   Code   RO          477    i.UART_DMA_Send     usart_1.o
    0x08008d44   0x08008d44   0x0000002c   Code   RO         4855    i.UART_EndRxTransfer  stm32g0xx_hal_uart.o
    0x08008d70   0x08008d70   0x00000022   Code   RO         4856    i.UART_EndTransmit_IT  stm32g0xx_hal_uart.o
    0x08008d92   0x08008d92   0x00000022   Code   RO         4857    i.UART_EndTxTransfer  stm32g0xx_hal_uart.o
    0x08008db4   0x08008db4   0x000006a0   Code   RO         4862    i.UART_SetConfig    stm32g0xx_hal_uart.o
    0x08009454   0x08009454   0x00000070   Code   RO         4867    i.UART_WaitOnFlagUntilTimeout  stm32g0xx_hal_uart.o
    0x080094c4   0x080094c4   0x0000007c   Code   RO          478    i.USART1_IRQHandler  usart_1.o
    0x08009540   0x08009540   0x00000028   Code   RO          895    i.User_Iwdg_Init    iwdg.o
    0x08009568   0x08009568   0x00000008   Code   RO          426    i.Z_F_Zhuan_thread_entry  task.o
    0x08009570   0x08009570   0x0000001c   Code   RO          522    i.__ARM_common_switch8  usart_1.o
    0x0800958c   0x0800958c   0x00000078   Code   RO         3474    i.__NVIC_SetPriority  stm32g0xx_hal_cortex.o
    0x08009604   0x08009604   0x0000005c   Code   RO         1444    i.__rt_ffs          kservice.o
    0x08009660   0x08009660   0x0000000e   Code   RO         5383    i.__scatterload_copy  mc_p.l(handlers.o)
    0x0800966e   0x0800966e   0x00000002   Code   RO         5384    i.__scatterload_null  mc_p.l(handlers.o)
    0x08009670   0x08009670   0x0000000e   Code   RO         5385    i.__scatterload_zeroinit  mc_p.l(handlers.o)
    0x0800967e   0x0800967e   0x00000002   PAD
    0x08009680   0x08009680   0x00000014   Code   RO         1105    i._has_defunct_thread  idle.o
    0x08009694   0x08009694   0x00000064   Code   RO         2221    i._msh_exec_cmd     msh.o
    0x080096f8   0x080096f8   0x0000008c   Code   RO         1857    i._rt_thread_init   thread.o
    0x08009784   0x08009784   0x0000003c   Code   RO         1978    i._rt_timer_init    timer.o
    0x080097c0   0x080097c0   0x0000002e   Code   RO         1979    i._rt_timer_remove  timer.o
    0x080097ee   0x080097ee   0x0000000e   Code   RO         2222    i.cmd_free          msh.o
    0x080097fc   0x080097fc   0x0000000e   Code   RO         2223    i.cmd_ps            msh.o
    0x0800980a   0x0800980a   0x00000002   PAD
    0x0800980c   0x0800980c   0x00000078   Code   RO         2294    i.finsh_get_prompt  shell.o
    0x08009884   0x08009884   0x00000002   Code   RO         2296    i.finsh_getchar     shell.o
    0x08009886   0x08009886   0x00000002   PAD
    0x08009888   0x08009888   0x00000024   Code   RO         2299    i.finsh_set_prompt_mode  shell.o
    0x080098ac   0x080098ac   0x00000014   Code   RO         2300    i.finsh_system_function_init  shell.o
    0x080098c0   0x080098c0   0x000000a0   Code   RO         2301    i.finsh_system_init  shell.o
    0x08009960   0x08009960   0x000003e4   Code   RO         2303    i.finsh_thread_entry  shell.o
    0x08009d44   0x08009d44   0x00000020   Code   RO         2117    i.hello             cmd.o
    0x08009d64   0x08009d64   0x00000018   Code   RO          427    i.led_thread_entry  task.o
    0x08009d7c   0x08009d7c   0x0000005c   Code   RO         2118    i.list              cmd.o
    0x08009dd8   0x08009dd8   0x00000144   Code   RO         2119    i.list_event        cmd.o
    0x08009f1c   0x08009f1c   0x00000028   Code   RO         2120    i.list_find_init    cmd.o
    0x08009f44   0x08009f44   0x00000096   Code   RO         2121    i.list_get_next     cmd.o
    0x08009fda   0x08009fda   0x00000002   PAD
    0x08009fdc   0x08009fdc   0x0000015c   Code   RO         2122    i.list_mailbox      cmd.o
    0x0800a138   0x0800a138   0x00000078   Code   RO         1621    i.list_mem          mem.o
    0x0800a1b0   0x0800a1b0   0x00000144   Code   RO         2123    i.list_msgqueue     cmd.o
    0x0800a2f4   0x0800a2f4   0x00000110   Code   RO         2124    i.list_mutex        cmd.o
    0x0800a404   0x0800a404   0x00000138   Code   RO         2125    i.list_sem          cmd.o
    0x0800a53c   0x0800a53c   0x000001ec   Code   RO         2126    i.list_thread       cmd.o
    0x0800a728   0x0800a728   0x0000015c   Code   RO         2127    i.list_timer        cmd.o
    0x0800a884   0x0800a884   0x0000001c   Code   RO          849    i.long32Array       common.o
    0x0800a8a0   0x0800a8a0   0x00000010   Code   RO           13    i.main              main.o
    0x0800a8b0   0x0800a8b0   0x0000000e   Code   RO         1032    i.main_thread_entry  components.o
    0x0800a8be   0x0800a8be   0x00000002   PAD
    0x0800a8c0   0x0800a8c0   0x000000a4   Code   RO         2224    i.msh_auto_complete  msh.o
    0x0800a964   0x0800a964   0x00000070   Code   RO         2225    i.msh_exec          msh.o
    0x0800a9d4   0x0800a9d4   0x00000060   Code   RO         2226    i.msh_get_cmd       msh.o
    0x0800aa34   0x0800aa34   0x00000078   Code   RO         2227    i.msh_help          msh.o
    0x0800aaac   0x0800aaac   0x00000004   Code   RO         2228    i.msh_is_used       msh.o
    0x0800aab0   0x0800aab0   0x000000f8   Code   RO         2229    i.msh_split         msh.o
    0x0800aba8   0x0800aba8   0x0000001c   Code   RO         2128    i.object_split      cmd.o
    0x0800abc4   0x0800abc4   0x0000007c   Code   RO         1622    i.plug_holes        mem.o
    0x0800ac40   0x0800ac40   0x00000194   Code   RO         1446    i.print_number      kservice.o
    0x0800add4   0x0800add4   0x00000030   Code   RO         1033    i.rt_application_init  components.o
    0x0800ae04   0x0800ae04   0x00000028   Code   RO         1623    i.rt_calloc         mem.o
    0x0800ae2c   0x0800ae2c   0x0000001c   Code   RO         1034    i.rt_components_board_init  components.o
    0x0800ae48   0x0800ae48   0x0000001c   Code   RO         1035    i.rt_components_init  components.o
    0x0800ae64   0x0800ae64   0x00000020   Code   RO         1785    i.rt_enter_critical  scheduler.o
    0x0800ae84   0x0800ae84   0x00000048   Code   RO         1786    i.rt_exit_critical  scheduler.o
    0x0800aecc   0x0800aecc   0x000000e8   Code   RO         1624    i.rt_free           mem.o
    0x0800afb4   0x0800afb4   0x00000008   Code   RO          314    i.rt_heap_begin_get  board.o
    0x0800afbc   0x0800afbc   0x00000008   Code   RO          315    i.rt_heap_end_get   board.o
    0x0800afc4   0x0800afc4   0x0000001e   Code   RO          316    i.rt_hw_board_init  board.o
    0x0800afe2   0x0800afe2   0x00000002   Code   RO         1449    i.rt_hw_console_output  kservice.o
    0x0800afe4   0x0800afe4   0x000000f4   Code   RO         2086    i.rt_hw_hard_fault_exception  cpuport.o
    0x0800b0d8   0x0800b0d8   0x00000040   Code   RO         2087    i.rt_hw_stack_init  cpuport.o
    0x0800b118   0x0800b118   0x00000020   Code   RO         1417    i.rt_interrupt_enter  irq.o
    0x0800b138   0x0800b138   0x00000020   Code   RO         1419    i.rt_interrupt_leave  irq.o
    0x0800b158   0x0800b158   0x00000014   Code   RO         1152    i.rt_ipc_list_resume  ipc.o
    0x0800b16c   0x0800b16c   0x00000062   Code   RO         1154    i.rt_ipc_list_suspend  ipc.o
    0x0800b1ce   0x0800b1ce   0x00000010   Code   RO         1155    i.rt_ipc_object_init  ipc.o
    0x0800b1de   0x0800b1de   0x00000002   PAD
    0x0800b1e0   0x0800b1e0   0x00000034   Code   RO         1450    i.rt_kprintf        kservice.o
    0x0800b214   0x0800b214   0x00000006   Code   RO         1156    i.rt_list_init      ipc.o
    0x0800b21a   0x0800b21a   0x00000006   Code   RO         1787    i.rt_list_init      scheduler.o
    0x0800b220   0x0800b220   0x00000006   Code   RO         1980    i.rt_list_init      timer.o
    0x0800b226   0x0800b226   0x0000000e   Code   RO         1709    i.rt_list_insert_after  object.o
    0x0800b234   0x0800b234   0x0000000e   Code   RO         1858    i.rt_list_insert_after  thread.o
    0x0800b242   0x0800b242   0x0000000e   Code   RO         1981    i.rt_list_insert_after  timer.o
    0x0800b250   0x0800b250   0x0000000e   Code   RO         1157    i.rt_list_insert_before  ipc.o
    0x0800b25e   0x0800b25e   0x00000010   Code   RO         1158    i.rt_list_isempty   ipc.o
    0x0800b26e   0x0800b26e   0x00000010   Code   RO         1982    i.rt_list_isempty   timer.o
    0x0800b27e   0x0800b27e   0x00000010   Code   RO         2129    i.rt_list_isempty   cmd.o
    0x0800b28e   0x0800b28e   0x00000014   Code   RO         2130    i.rt_list_len       cmd.o
    0x0800b2a2   0x0800b2a2   0x00000012   Code   RO         1710    i.rt_list_remove    object.o
    0x0800b2b4   0x0800b2b4   0x00000012   Code   RO         1859    i.rt_list_remove    thread.o
    0x0800b2c6   0x0800b2c6   0x00000002   PAD
    0x0800b2c8   0x0800b2c8   0x0000016c   Code   RO         1625    i.rt_malloc         mem.o
    0x0800b434   0x0800b434   0x00000042   Code   RO         1455    i.rt_memmove        kservice.o
    0x0800b476   0x0800b476   0x0000004c   Code   RO         1456    i.rt_memset         kservice.o
    0x0800b4c2   0x0800b4c2   0x00000050   Code   RO         1711    i.rt_object_allocate  object.o
    0x0800b512   0x0800b512   0x00000024   Code   RO         1712    i.rt_object_delete  object.o
    0x0800b536   0x0800b536   0x0000001e   Code   RO         1713    i.rt_object_detach  object.o
    0x0800b554   0x0800b554   0x00000024   Code   RO         1715    i.rt_object_get_information  object.o
    0x0800b578   0x0800b578   0x00000054   Code   RO         1717    i.rt_object_init    object.o
    0x0800b5cc   0x0800b5cc   0x00000014   Code   RO         1718    i.rt_object_is_systemobject  object.o
    0x0800b5e0   0x0800b5e0   0x00000084   Code   RO         1788    i.rt_schedule       scheduler.o
    0x0800b664   0x0800b664   0x00000054   Code   RO         1789    i.rt_schedule_insert_thread  scheduler.o
    0x0800b6b8   0x0800b6b8   0x00000058   Code   RO         1790    i.rt_schedule_remove_thread  scheduler.o
    0x0800b710   0x0800b710   0x00000022   Code   RO         1186    i.rt_sem_init       ipc.o
    0x0800b732   0x0800b732   0x0000003c   Code   RO         1187    i.rt_sem_release    ipc.o
    0x0800b76e   0x0800b76e   0x00000078   Code   RO         1188    i.rt_sem_take       ipc.o
    0x0800b7e6   0x0800b7e6   0x00000002   PAD
    0x0800b7e8   0x0800b7e8   0x000000b0   Code   RO         1458    i.rt_show_version   kservice.o
    0x0800b898   0x0800b898   0x00000012   Code   RO         1464    i.rt_strlen         kservice.o
    0x0800b8aa   0x0800b8aa   0x00000038   Code   RO         1466    i.rt_strncpy        kservice.o
    0x0800b8e2   0x0800b8e2   0x00000002   PAD
    0x0800b8e4   0x0800b8e4   0x000000f4   Code   RO         1628    i.rt_system_heap_init  mem.o
    0x0800b9d8   0x0800b9d8   0x0000004c   Code   RO         1791    i.rt_system_scheduler_init  scheduler.o
    0x0800ba24   0x0800ba24   0x00000030   Code   RO         1792    i.rt_system_scheduler_start  scheduler.o
    0x0800ba54   0x0800ba54   0x0000001c   Code   RO         1983    i.rt_system_timer_init  timer.o
    0x0800ba70   0x0800ba70   0x00000002   Code   RO         1984    i.rt_system_timer_thread_init  timer.o
    0x0800ba72   0x0800ba72   0x00000050   Code   RO         1861    i.rt_thread_create  thread.o
    0x0800bac2   0x0800bac2   0x00000002   PAD
    0x0800bac4   0x0800bac4   0x00000058   Code   RO         1865    i.rt_thread_exit    thread.o
    0x0800bb1c   0x0800bb1c   0x00000008   Code   RO         1106    i.rt_thread_idle_entry  idle.o
    0x0800bb24   0x0800bb24   0x00000094   Code   RO         1107    i.rt_thread_idle_excute  idle.o
    0x0800bbb8   0x0800bbb8   0x0000003c   Code   RO         1109    i.rt_thread_idle_init  idle.o
    0x0800bbf4   0x0800bbf4   0x0000002c   Code   RO         1867    i.rt_thread_init    thread.o
    0x0800bc20   0x0800bc20   0x00000014   Code   RO         1868    i.rt_thread_mdelay  thread.o
    0x0800bc34   0x0800bc34   0x0000003c   Code   RO         1869    i.rt_thread_resume  thread.o
    0x0800bc70   0x0800bc70   0x0000000c   Code   RO         1870    i.rt_thread_self    thread.o
    0x0800bc7c   0x0800bc7c   0x00000044   Code   RO         1871    i.rt_thread_sleep   thread.o
    0x0800bcc0   0x0800bcc0   0x00000030   Code   RO         1872    i.rt_thread_startup  thread.o
    0x0800bcf0   0x0800bcf0   0x00000044   Code   RO         1873    i.rt_thread_suspend  thread.o
    0x0800bd34   0x0800bd34   0x00000020   Code   RO         1874    i.rt_thread_timeout  thread.o
    0x0800bd54   0x0800bd54   0x00000064   Code   RO         1875    i.rt_thread_yield   thread.o
    0x0800bdb8   0x0800bdb8   0x0000003e   Code   RO          994    i.rt_tick_from_millisecond  clock.o
    0x0800bdf6   0x0800bdf6   0x00000002   PAD
    0x0800bdf8   0x0800bdf8   0x0000000c   Code   RO          995    i.rt_tick_get       clock.o
    0x0800be04   0x0800be04   0x00000030   Code   RO          996    i.rt_tick_increase  clock.o
    0x0800be34   0x0800be34   0x00000080   Code   RO         1985    i.rt_timer_check    timer.o
    0x0800beb4   0x0800beb4   0x0000003c   Code   RO         1986    i.rt_timer_control  timer.o
    0x0800bef0   0x0800bef0   0x00000020   Code   RO         1989    i.rt_timer_detach   timer.o
    0x0800bf10   0x0800bf10   0x00000026   Code   RO         1990    i.rt_timer_init     timer.o
    0x0800bf36   0x0800bf36   0x00000002   PAD
    0x0800bf38   0x0800bf38   0x00000108   Code   RO         1993    i.rt_timer_start    timer.o
    0x0800c040   0x0800c040   0x00000030   Code   RO         1994    i.rt_timer_stop     timer.o
    0x0800c070   0x0800c070   0x00000368   Code   RO         1469    i.rt_vsnprintf      kservice.o
    0x0800c3d8   0x0800c3d8   0x00000004   Code   RO         1036    i.rti_board_end     components.o
    0x0800c3dc   0x0800c3dc   0x00000004   Code   RO         1037    i.rti_board_start   components.o
    0x0800c3e0   0x0800c3e0   0x00000004   Code   RO         1038    i.rti_end           components.o
    0x0800c3e4   0x0800c3e4   0x00000004   Code   RO         1039    i.rti_start         components.o
    0x0800c3e8   0x0800c3e8   0x0000002a   Code   RO         1040    i.rtthread_startup  components.o
    0x0800c412   0x0800c412   0x00000002   PAD
    0x0800c414   0x0800c414   0x00000038   Code   RO         2304    i.shell_auto_complete  shell.o
    0x0800c44c   0x0800c44c   0x00000030   Code   RO         2131    i.show_wait_queue   cmd.o
    0x0800c47c   0x0800c47c   0x00000024   Code   RO         1471    i.skip_atoi         kservice.o
    0x0800c4a0   0x0800c4a0   0x00000024   Code   RO         2230    i.str_common        msh.o
    0x0800c4c4   0x0800c4c4   0x00000028   Code   RO          386    i.system_Init       system.o
    0x0800c4ec   0x0800c4ec   0x00000084   Code   RO          428    i.task_Init         task.o
    0x0800c570   0x0800c570   0x0000000a   Code   RO         2132    i.version           cmd.o
    0x0800c57a   0x0800c57a   0x00000008   Data   RO          691    .constdata          modbus_asc.o
    0x0800c582   0x0800c582   0x00000122   Data   RO         1473    .constdata          kservice.o
    0x0800c6a4   0x0800c6a4   0x00000009   Data   RO         1630    .constdata          mem.o
    0x0800c6ad   0x0800c6ad   0x000000ed   Data   RO         2133    .constdata          cmd.o
    0x0800c79a   0x0800c79a   0x0000001f   Data   RO         2231    .constdata          msh.o
    0x0800c7b9   0x0800c7b9   0x00000003   PAD
    0x0800c7bc   0x0800c7bc   0x00000060   Data   RO         5305    .constdata          system_stm32g0xx.o
    0x0800c81c   0x0800c81c   0x00000021   Data   RO          430    .conststring        task.o
    0x0800c83d   0x0800c83d   0x00000003   PAD
    0x0800c840   0x0800c840   0x00000044   Data   RO         2134    .conststring        cmd.o
    0x0800c884   0x0800c884   0x00000004   Data   RO         1041    .rti_fn.0           components.o
    0x0800c888   0x0800c888   0x00000004   Data   RO         1042    .rti_fn.0.end       components.o
    0x0800c88c   0x0800c88c   0x00000004   Data   RO         1043    .rti_fn.1.end       components.o
    0x0800c890   0x0800c890   0x00000004   Data   RO         2307    .rti_fn.6           shell.o
    0x0800c894   0x0800c894   0x00000004   Data   RO         1044    .rti_fn.6.end       components.o
    0x0800c898   0x0800c898   0x00000008   Data   RO         1632    FSymTab             mem.o
    0x0800c8a0   0x0800c8a0   0x00000090   Data   RO         2135    FSymTab             cmd.o
    0x0800c930   0x0800c930   0x00000018   Data   RO         2232    FSymTab             msh.o
    0x0800c948   0x0800c948   0x00000020   Data   RO         5381    Region$$Table       anon$$obj.o


    Execution Region RW_IRAM1 (Exec base: 0x20000000, Load base: 0x0800c968, Size: 0x00002e70, Max: 0x00009000, ABSOLUTE, COMPRESSED[0x00000070])

    Exec Addr    Load Addr    Size         Type   Attr      Idx    E Section Name        Object

    0x20000000   COMPRESSED   0x00000028   Data   RW          256    .data               para.o
    0x20000028   COMPRESSED   0x00000054   Data   RW          431    .data               task.o
    0x2000007c   COMPRESSED   0x00000008   Data   RW          480    .data               usart_1.o
    0x20000084   COMPRESSED   0x00000010   Data   RW          550    .data               tim_1.o
    0x20000094   COMPRESSED   0x00000003   Data   RW          692    .data               modbus_asc.o
    0x20000097   COMPRESSED   0x00000001   PAD
    0x20000098   COMPRESSED   0x00000004   Data   RW          781    .data               modbus_ascii.o
    0x2000009c   COMPRESSED   0x00000010   Data   RW          933    .data               inflash.o
    0x200000ac   COMPRESSED   0x00000004   Data   RW          998    .data               clock.o
    0x200000b0   COMPRESSED   0x00000001   Data   RW         1420    .data               irq.o
    0x200000b1   COMPRESSED   0x00000003   PAD
    0x200000b4   COMPRESSED   0x00000018   Data   RW         1631    .data               mem.o
    0x200000cc   COMPRESSED   0x00000070   Data   RW         1720    .data               object.o
    0x2000013c   COMPRESSED   0x00000018   Data   RW         1794    .data               scheduler.o
    0x20000154   COMPRESSED   0x0000000c   Data   RW         1995    .data               timer.o
    0x20000160   COMPRESSED   0x0000000c   Data   RW         2088    .data               cpuport.o
    0x2000016c   COMPRESSED   0x00000018   Data   RW         2306    .data               shell.o
    0x20000184   COMPRESSED   0x0000000c   Data   RW         3599    .data               stm32g0xx_hal.o
    0x20000190   COMPRESSED   0x00000004   Data   RW         5306    .data               system_stm32g0xx.o
    0x20000194        -       0x00000040   Zero   RW          255    .bss                para.o
    0x200001d4        -       0x00002000   Zero   RW          317    .bss                board.o
    0x200021d4        -       0x00000270   Zero   RW          479    .bss                usart_1.o
    0x20002444        -       0x00000080   Zero   RW          549    .bss                tim_1.o
    0x200024c4        -       0x000000c0   Zero   RW          644    .bss                adc_1.o
    0x20002584        -       0x00000064   Zero   RW          690    .bss                modbus_asc.o
    0x200025e8        -       0x00000096   Zero   RW          780    .bss                modbus_ascii.o
    0x2000267e   COMPRESSED   0x00000002   PAD
    0x20002680        -       0x00000010   Zero   RW          896    .bss                iwdg.o
    0x20002690        -       0x0000000c   Zero   RW          932    .bss                inflash.o
    0x2000269c        -       0x00000190   Zero   RW         1110    .bss                idle.o
    0x2000282c        -       0x00000080   Zero   RW         1472    .bss                kservice.o
    0x200028ac        -       0x00000028   Zero   RW         1629    .bss                mem.o
    0x200028d4        -       0x00000100   Zero   RW         1793    .bss                scheduler.o
    0x200029d4        -       0x00000081   Zero   RW         2305    .bss                shell.o
    0x20002a55   COMPRESSED   0x00000003   PAD
    0x20002a58        -       0x00000018   Zero   RW         2935    .bss                stm32g0xx_hal_flash.o
    0x20002a70        -       0x00000400   Zero   RW            1    STACK               startup_stm32g070xx.o


==============================================================================

Image component sizes


      Code (inc. data)   RO Data    RW Data    ZI Data      Debug   Object Name

       412         38          0          0        192       1795   adc_1.o
        62          8          0          0       8192       2267   board.o
       122         10          0          4          0       1660   clock.o
      2856        980        449          0          0      17426   cmd.o
        28          0          0          0          0        734   common.o
       186         30         16          0          0       5384   components.o
       216         32          0          0          0        768   context_rvds.o
       308        166          0         12          0       2950   cpuport.o
        68          4          0          0          0        702   dma_1.o
       236         32          0          0        400       5306   idle.o
       230         24          0         16         12       3495   inflash.o
       384          0          0          0          0       7877   ipc.o
        64         12          0          1          0       1454   irq.o
        40          8          0          0         16        656   iwdg.o
      1850        168        290          0        128       9656   kservice.o
       140          8          0          0          0        843   led.o
        18          0          0          0          0     426514   main.o
      1124        316         17         24         40       4898   mem.o
      2852        244          8          3        100      18816   modbus_asc.o
       880         34          0          4        150       6924   modbus_ascii.o
       908        156         55          0          0       8677   msh.o
       318          4          0        112          0       7948   object.o
       300         28          0         40         64       2287   para.o
       538         94          0         24        256       8030   scheduler.o
      1390        152          4         24        129       9636   shell.o
        28          8        184          0       1024        616   startup_stm32g070xx.o
       196         30          0         12          0       3255   stm32g0xx_hal.o
      2878         90          0          0          0      40961   stm32g0xx_hal_adc.o
       222         26          0          0          0      12061   stm32g0xx_hal_cortex.o
      1188         42          0          0          0       6401   stm32g0xx_hal_dma.o
       476         50          0          0         24      14926   stm32g0xx_hal_flash.o
       212         26          0          0          0       2218   stm32g0xx_hal_flash_ex.o
       492         16          0          0          0       2697   stm32g0xx_hal_gpio.o
       108         14          0          0          0       1104   stm32g0xx_hal_iwdg.o
        68          4          0          0          0        774   stm32g0xx_hal_msp.o
        88         12          0          0          0        734   stm32g0xx_hal_pwr_ex.o
      2208         96          0          0          0      20425   stm32g0xx_hal_rcc.o
       516         12          0          0          0       1572   stm32g0xx_hal_rcc_ex.o
      1208         48          0          0          0       8867   stm32g0xx_hal_tim.o
       382          8          0          0          0       3716   stm32g0xx_hal_tim_ex.o
      3880         90          0          0          0      16770   stm32g0xx_hal_uart.o
       412         18          0          0          0       5118   stm32g0xx_hal_uart_ex.o
        60         20          0          0          0       2126   stm32g0xx_it.o
        40          0          0          0          0        442   system.o
       156          6          0          0          0        661   system_clock.o
        16          8         96          4          0       1083   system_stm32g0xx.o
       164         18         33         84          0       2632   task.o
       792         38          0          0          0      11260   thread.o
       640         86          0         16        128       3380   tim_1.o
       742         26          0         12          0      10560   timer.o
       764         72          0          8        624       3546   usart_1.o

    ----------------------------------------------------------------------
     33516       3412       1190        404      11484     734608   Object Totals
         0          0         32          0          0          0   (incl. Generated)
        50          0          6          4          5          0   (incl. Padding)

    ----------------------------------------------------------------------

      Code (inc. data)   RO Data    RW Data    ZI Data      Debug   Library Member Name

        86          0          0          0          0          0   __dczerorl2.o
         0          0          0          0          0          0   entry.o
         0          0          0          0          0          0   entry10a.o
         0          0          0          0          0          0   entry11a.o
         8          4          0          0          0          0   entry2.o
         4          0          0          0          0          0   entry5.o
         0          0          0          0          0          0   entry7b.o
         0          0          0          0          0          0   entry8b.o
         8          4          0          0          0          0   entry9a.o
        30          0          0          0          0          0   handlers.o
        40          0          0          0          0         72   idiv.o
        36          8          0          0          0         68   init.o
        36          0          0          0          0         60   memcpya.o
        36          0          0          0          0        100   memseta.o
        24          0          0          0          0         60   strcat.o
        28          0          0          0          0         68   strcmp.o
        18          0          0          0          0         60   strcpy.o
        14          0          0          0          0         60   strlen.o
        30          0          0          0          0         72   strncmp.o
        26          0          0          0          0         68   strncpy.o
        44          0          0          0          0         72   uidiv.o

    ----------------------------------------------------------------------
       470         16          0          0          0        760   Library Totals
         2          0          0          0          0          0   (incl. Padding)

    ----------------------------------------------------------------------

      Code (inc. data)   RO Data    RW Data    ZI Data      Debug   Library Name

       468         16          0          0          0        760   mc_p.l

    ----------------------------------------------------------------------
       470         16          0          0          0        760   Library Totals

    ----------------------------------------------------------------------

==============================================================================


      Code (inc. data)   RO Data    RW Data    ZI Data      Debug   

     33986       3428       1190        404      11484     723264   Grand Totals
     33986       3428       1190        112      11484     723264   ELF Image Totals (compressed)
     33986       3428       1190        112          0          0   ROM Totals

==============================================================================

    Total RO  Size (Code + RO Data)                35176 (  34.35kB)
    Total RW  Size (RW Data + ZI Data)             11888 (  11.61kB)
    Total ROM Size (Code + RO Data + RW Data)      35288 (  34.46kB)

==============================================================================

